
/home/zgs/project/ysyx-workbench/am-kernels/tests/cpu-tests/build/hello-str-riscv64-nemu.elf:     file format elf64-littleriscv


Disassembly of section .text:

0000000080000000 <_start>:
    80000000:	00000413          	li	s0,0
    80000004:	00009117          	auipc	sp,0x9
    80000008:	ffc10113          	addi	sp,sp,-4 # 80009000 <_end>
    8000000c:	100000ef          	jal	ra,8000010c <_trm_init>

0000000080000010 <check>:
    80000010:	00050463          	beqz	a0,80000018 <check+0x8>
    80000014:	00008067          	ret
    80000018:	ff010113          	addi	sp,sp,-16
    8000001c:	00100513          	li	a0,1
    80000020:	00113423          	sd	ra,8(sp)
    80000024:	0dc000ef          	jal	ra,80000100 <halt>

0000000080000028 <main>:
    80000028:	ff010113          	addi	sp,sp,-16
    8000002c:	00000617          	auipc	a2,0x0
    80000030:	50460613          	addi	a2,a2,1284 # 80000530 <_etext>
    80000034:	00000597          	auipc	a1,0x0
    80000038:	50c58593          	addi	a1,a1,1292 # 80000540 <_etext+0x10>
    8000003c:	00000517          	auipc	a0,0x0
    80000040:	61450513          	addi	a0,a0,1556 # 80000650 <buf>
    80000044:	00113423          	sd	ra,8(sp)
    80000048:	3b8000ef          	jal	ra,80000400 <sprintf>
    8000004c:	00000597          	auipc	a1,0x0
    80000050:	4e458593          	addi	a1,a1,1252 # 80000530 <_etext>
    80000054:	00000517          	auipc	a0,0x0
    80000058:	5fc50513          	addi	a0,a0,1532 # 80000650 <buf>
    8000005c:	408000ef          	jal	ra,80000464 <strcmp>
    80000060:	00153513          	seqz	a0,a0
    80000064:	fadff0ef          	jal	ra,80000010 <check>
    80000068:	00200713          	li	a4,2
    8000006c:	00100693          	li	a3,1
    80000070:	00100613          	li	a2,1
    80000074:	00000597          	auipc	a1,0x0
    80000078:	4d458593          	addi	a1,a1,1236 # 80000548 <_etext+0x18>
    8000007c:	00000517          	auipc	a0,0x0
    80000080:	5d450513          	addi	a0,a0,1492 # 80000650 <buf>
    80000084:	37c000ef          	jal	ra,80000400 <sprintf>
    80000088:	00000597          	auipc	a1,0x0
    8000008c:	4d058593          	addi	a1,a1,1232 # 80000558 <_etext+0x28>
    80000090:	00000517          	auipc	a0,0x0
    80000094:	5c050513          	addi	a0,a0,1472 # 80000650 <buf>
    80000098:	3cc000ef          	jal	ra,80000464 <strcmp>
    8000009c:	00153513          	seqz	a0,a0
    800000a0:	f71ff0ef          	jal	ra,80000010 <check>
    800000a4:	00c00713          	li	a4,12
    800000a8:	00a00693          	li	a3,10
    800000ac:	00200613          	li	a2,2
    800000b0:	00000597          	auipc	a1,0x0
    800000b4:	49858593          	addi	a1,a1,1176 # 80000548 <_etext+0x18>
    800000b8:	00000517          	auipc	a0,0x0
    800000bc:	59850513          	addi	a0,a0,1432 # 80000650 <buf>
    800000c0:	340000ef          	jal	ra,80000400 <sprintf>
    800000c4:	00000597          	auipc	a1,0x0
    800000c8:	4a458593          	addi	a1,a1,1188 # 80000568 <_etext+0x38>
    800000cc:	00000517          	auipc	a0,0x0
    800000d0:	58450513          	addi	a0,a0,1412 # 80000650 <buf>
    800000d4:	390000ef          	jal	ra,80000464 <strcmp>
    800000d8:	00153513          	seqz	a0,a0
    800000dc:	f35ff0ef          	jal	ra,80000010 <check>
    800000e0:	00813083          	ld	ra,8(sp)
    800000e4:	00000513          	li	a0,0
    800000e8:	01010113          	addi	sp,sp,16
    800000ec:	00008067          	ret

00000000800000f0 <putch>:
    800000f0:	00500793          	li	a5,5
    800000f4:	01d79793          	slli	a5,a5,0x1d
    800000f8:	3ea78c23          	sb	a0,1016(a5)
    800000fc:	00008067          	ret

0000000080000100 <halt>:
    80000100:	00050513          	mv	a0,a0
    80000104:	00100073          	ebreak
    80000108:	0000006f          	j	80000108 <halt+0x8>

000000008000010c <_trm_init>:
    8000010c:	ff010113          	addi	sp,sp,-16
    80000110:	00000517          	auipc	a0,0x0
    80000114:	53850513          	addi	a0,a0,1336 # 80000648 <mainargs>
    80000118:	00113423          	sd	ra,8(sp)
    8000011c:	f0dff0ef          	jal	ra,80000028 <main>
    80000120:	00050513          	mv	a0,a0
    80000124:	00100073          	ebreak
    80000128:	0000006f          	j	80000128 <_trm_init+0x1c>

000000008000012c <_i2a>:
    8000012c:	00158e13          	addi	t3,a1,1
    80000130:	00058313          	mv	t1,a1
    80000134:	00055c63          	bgez	a0,8000014c <_i2a+0x20>
    80000138:	02d00793          	li	a5,45
    8000013c:	000e0313          	mv	t1,t3
    80000140:	00f58023          	sb	a5,0(a1)
    80000144:	40a0053b          	negw	a0,a0
    80000148:	00258e13          	addi	t3,a1,2
    8000014c:	00900793          	li	a5,9
    80000150:	02a7c263          	blt	a5,a0,80000174 <_i2a+0x48>
    80000154:	00000797          	auipc	a5,0x0
    80000158:	49478793          	addi	a5,a5,1172 # 800005e8 <s.1490>
    8000015c:	00a78533          	add	a0,a5,a0
    80000160:	00054783          	lbu	a5,0(a0)
    80000164:	000300a3          	sb	zero,1(t1)
    80000168:	40be053b          	subw	a0,t3,a1
    8000016c:	00f30023          	sb	a5,0(t1)
    80000170:	00008067          	ret
    80000174:	fe010113          	addi	sp,sp,-32
    80000178:	00010893          	mv	a7,sp
    8000017c:	00088693          	mv	a3,a7
    80000180:	00000797          	auipc	a5,0x0
    80000184:	46878793          	addi	a5,a5,1128 # 800005e8 <s.1490>
    80000188:	02c5673b          	remw	a4,a0,a2
    8000018c:	00068813          	mv	a6,a3
    80000190:	00168693          	addi	a3,a3,1
    80000194:	02c5453b          	divw	a0,a0,a2
    80000198:	00e78733          	add	a4,a5,a4
    8000019c:	00074703          	lbu	a4,0(a4)
    800001a0:	fee68fa3          	sb	a4,-1(a3)
    800001a4:	fe0512e3          	bnez	a0,80000188 <_i2a+0x5c>
    800001a8:	03180863          	beq	a6,a7,800001d8 <_i2a+0xac>
    800001ac:	00080793          	mv	a5,a6
    800001b0:	00030693          	mv	a3,t1
    800001b4:	0080006f          	j	800001bc <_i2a+0x90>
    800001b8:	0007c703          	lbu	a4,0(a5)
    800001bc:	00e68023          	sb	a4,0(a3)
    800001c0:	fff78793          	addi	a5,a5,-1
    800001c4:	00168693          	addi	a3,a3,1
    800001c8:	ff1798e3          	bne	a5,a7,800001b8 <_i2a+0x8c>
    800001cc:	40f807b3          	sub	a5,a6,a5
    800001d0:	00f30333          	add	t1,t1,a5
    800001d4:	00130e13          	addi	t3,t1,1
    800001d8:	00014783          	lbu	a5,0(sp)
    800001dc:	000300a3          	sb	zero,1(t1)
    800001e0:	40be053b          	subw	a0,t3,a1
    800001e4:	00f30023          	sb	a5,0(t1)
    800001e8:	02010113          	addi	sp,sp,32
    800001ec:	00008067          	ret

00000000800001f0 <vsprintf>:
    800001f0:	f8010113          	addi	sp,sp,-128
    800001f4:	05513423          	sd	s5,72(sp)
    800001f8:	06113c23          	sd	ra,120(sp)
    800001fc:	06813823          	sd	s0,112(sp)
    80000200:	06913423          	sd	s1,104(sp)
    80000204:	07213023          	sd	s2,96(sp)
    80000208:	05313c23          	sd	s3,88(sp)
    8000020c:	05413823          	sd	s4,80(sp)
    80000210:	05613023          	sd	s6,64(sp)
    80000214:	03713c23          	sd	s7,56(sp)
    80000218:	03813823          	sd	s8,48(sp)
    8000021c:	03913423          	sd	s9,40(sp)
    80000220:	0005c783          	lbu	a5,0(a1)
    80000224:	00050a93          	mv	s5,a0
    80000228:	0e078e63          	beqz	a5,80000324 <vsprintf+0x134>
    8000022c:	00058413          	mv	s0,a1
    80000230:	00060713          	mv	a4,a2
    80000234:	00050913          	mv	s2,a0
    80000238:	02500c13          	li	s8,37
    8000023c:	06400b93          	li	s7,100
    80000240:	07300b13          	li	s6,115
    80000244:	0240006f          	j	80000268 <vsprintf+0x78>
    80000248:	00048693          	mv	a3,s1
    8000024c:	00f90023          	sb	a5,0(s2)
    80000250:	00040493          	mv	s1,s0
    80000254:	00100993          	li	s3,1
    80000258:	00068413          	mv	s0,a3
    8000025c:	0014c783          	lbu	a5,1(s1)
    80000260:	01390933          	add	s2,s2,s3
    80000264:	04078863          	beqz	a5,800002b4 <vsprintf+0xc4>
    80000268:	00140493          	addi	s1,s0,1
    8000026c:	fd879ee3          	bne	a5,s8,80000248 <vsprintf+0x58>
    80000270:	00144583          	lbu	a1,1(s0)
    80000274:	07759e63          	bne	a1,s7,800002f0 <vsprintf+0x100>
    80000278:	00072503          	lw	a0,0(a4)
    8000027c:	00a00613          	li	a2,10
    80000280:	00010593          	mv	a1,sp
    80000284:	00870a13          	addi	s4,a4,8
    80000288:	ea5ff0ef          	jal	ra,8000012c <_i2a>
    8000028c:	00050993          	mv	s3,a0
    80000290:	00050613          	mv	a2,a0
    80000294:	00010593          	mv	a1,sp
    80000298:	00090513          	mv	a0,s2
    8000029c:	224000ef          	jal	ra,800004c0 <memcpy>
    800002a0:	0014c783          	lbu	a5,1(s1)
    800002a4:	00240413          	addi	s0,s0,2
    800002a8:	000a0713          	mv	a4,s4
    800002ac:	01390933          	add	s2,s2,s3
    800002b0:	fa079ce3          	bnez	a5,80000268 <vsprintf+0x78>
    800002b4:	4159053b          	subw	a0,s2,s5
    800002b8:	00090023          	sb	zero,0(s2)
    800002bc:	07813083          	ld	ra,120(sp)
    800002c0:	07013403          	ld	s0,112(sp)
    800002c4:	06813483          	ld	s1,104(sp)
    800002c8:	06013903          	ld	s2,96(sp)
    800002cc:	05813983          	ld	s3,88(sp)
    800002d0:	05013a03          	ld	s4,80(sp)
    800002d4:	04813a83          	ld	s5,72(sp)
    800002d8:	04013b03          	ld	s6,64(sp)
    800002dc:	03813b83          	ld	s7,56(sp)
    800002e0:	03013c03          	ld	s8,48(sp)
    800002e4:	02813c83          	ld	s9,40(sp)
    800002e8:	08010113          	addi	sp,sp,128
    800002ec:	00008067          	ret
    800002f0:	05659063          	bne	a1,s6,80000330 <vsprintf+0x140>
    800002f4:	00073c83          	ld	s9,0(a4)
    800002f8:	00870a13          	addi	s4,a4,8
    800002fc:	00240413          	addi	s0,s0,2
    80000300:	000c8513          	mv	a0,s9
    80000304:	138000ef          	jal	ra,8000043c <strlen>
    80000308:	0005099b          	sext.w	s3,a0
    8000030c:	00098613          	mv	a2,s3
    80000310:	000c8593          	mv	a1,s9
    80000314:	00090513          	mv	a0,s2
    80000318:	1a8000ef          	jal	ra,800004c0 <memcpy>
    8000031c:	000a0713          	mv	a4,s4
    80000320:	f3dff06f          	j	8000025c <vsprintf+0x6c>
    80000324:	00050913          	mv	s2,a0
    80000328:	00000513          	li	a0,0
    8000032c:	f8dff06f          	j	800002b8 <vsprintf+0xc8>
    80000330:	00000517          	auipc	a0,0x0
    80000334:	24850513          	addi	a0,a0,584 # 80000578 <_etext+0x48>
    80000338:	024000ef          	jal	ra,8000035c <printf>
    8000033c:	05000613          	li	a2,80
    80000340:	00000597          	auipc	a1,0x0
    80000344:	24058593          	addi	a1,a1,576 # 80000580 <_etext+0x50>
    80000348:	00000517          	auipc	a0,0x0
    8000034c:	28050513          	addi	a0,a0,640 # 800005c8 <_etext+0x98>
    80000350:	00c000ef          	jal	ra,8000035c <printf>
    80000354:	00100513          	li	a0,1
    80000358:	da9ff0ef          	jal	ra,80000100 <halt>

000000008000035c <printf>:
    8000035c:	f9010113          	addi	sp,sp,-112
    80000360:	03810313          	addi	t1,sp,56
    80000364:	02b13c23          	sd	a1,56(sp)
    80000368:	04c13023          	sd	a2,64(sp)
    8000036c:	00050593          	mv	a1,a0
    80000370:	00030613          	mv	a2,t1
    80000374:	00000517          	auipc	a0,0x0
    80000378:	35c50513          	addi	a0,a0,860 # 800006d0 <print_buf>
    8000037c:	00913c23          	sd	s1,24(sp)
    80000380:	01213823          	sd	s2,16(sp)
    80000384:	02113423          	sd	ra,40(sp)
    80000388:	02813023          	sd	s0,32(sp)
    8000038c:	04d13423          	sd	a3,72(sp)
    80000390:	04e13823          	sd	a4,80(sp)
    80000394:	04f13c23          	sd	a5,88(sp)
    80000398:	07013023          	sd	a6,96(sp)
    8000039c:	07113423          	sd	a7,104(sp)
    800003a0:	00613423          	sd	t1,8(sp)
    800003a4:	e4dff0ef          	jal	ra,800001f0 <vsprintf>
    800003a8:	0005049b          	sext.w	s1,a0
    800003ac:	00050913          	mv	s2,a0
    800003b0:	02048a63          	beqz	s1,800003e4 <printf+0x88>
    800003b4:	fff4849b          	addiw	s1,s1,-1
    800003b8:	02049493          	slli	s1,s1,0x20
    800003bc:	0204d493          	srli	s1,s1,0x20
    800003c0:	00000797          	auipc	a5,0x0
    800003c4:	31178793          	addi	a5,a5,785 # 800006d1 <print_buf+0x1>
    800003c8:	00000417          	auipc	s0,0x0
    800003cc:	30840413          	addi	s0,s0,776 # 800006d0 <print_buf>
    800003d0:	00f484b3          	add	s1,s1,a5
    800003d4:	00044503          	lbu	a0,0(s0)
    800003d8:	00140413          	addi	s0,s0,1
    800003dc:	d15ff0ef          	jal	ra,800000f0 <putch>
    800003e0:	fe941ae3          	bne	s0,s1,800003d4 <printf+0x78>
    800003e4:	02813083          	ld	ra,40(sp)
    800003e8:	02013403          	ld	s0,32(sp)
    800003ec:	01813483          	ld	s1,24(sp)
    800003f0:	00090513          	mv	a0,s2
    800003f4:	01013903          	ld	s2,16(sp)
    800003f8:	07010113          	addi	sp,sp,112
    800003fc:	00008067          	ret

0000000080000400 <sprintf>:
    80000400:	fb010113          	addi	sp,sp,-80
    80000404:	02010313          	addi	t1,sp,32
    80000408:	02c13023          	sd	a2,32(sp)
    8000040c:	00030613          	mv	a2,t1
    80000410:	00113c23          	sd	ra,24(sp)
    80000414:	02d13423          	sd	a3,40(sp)
    80000418:	02e13823          	sd	a4,48(sp)
    8000041c:	02f13c23          	sd	a5,56(sp)
    80000420:	05013023          	sd	a6,64(sp)
    80000424:	05113423          	sd	a7,72(sp)
    80000428:	00613423          	sd	t1,8(sp)
    8000042c:	dc5ff0ef          	jal	ra,800001f0 <vsprintf>
    80000430:	01813083          	ld	ra,24(sp)
    80000434:	05010113          	addi	sp,sp,80
    80000438:	00008067          	ret

000000008000043c <strlen>:
    8000043c:	00054783          	lbu	a5,0(a0)
    80000440:	00078e63          	beqz	a5,8000045c <strlen+0x20>
    80000444:	00050793          	mv	a5,a0
    80000448:	0017c703          	lbu	a4,1(a5)
    8000044c:	00178793          	addi	a5,a5,1
    80000450:	fe071ce3          	bnez	a4,80000448 <strlen+0xc>
    80000454:	40a78533          	sub	a0,a5,a0
    80000458:	00008067          	ret
    8000045c:	00000513          	li	a0,0
    80000460:	00008067          	ret

0000000080000464 <strcmp>:
    80000464:	00054703          	lbu	a4,0(a0)
    80000468:	02070c63          	beqz	a4,800004a0 <strcmp+0x3c>
    8000046c:	00000793          	li	a5,0
    80000470:	0100006f          	j	80000480 <strcmp+0x1c>
    80000474:	02e69e63          	bne	a3,a4,800004b0 <strcmp+0x4c>
    80000478:	00064703          	lbu	a4,0(a2)
    8000047c:	02070063          	beqz	a4,8000049c <strcmp+0x38>
    80000480:	00f586b3          	add	a3,a1,a5
    80000484:	0006c683          	lbu	a3,0(a3)
    80000488:	00178793          	addi	a5,a5,1
    8000048c:	00f50633          	add	a2,a0,a5
    80000490:	fe0692e3          	bnez	a3,80000474 <strcmp+0x10>
    80000494:	00100513          	li	a0,1
    80000498:	00008067          	ret
    8000049c:	00f585b3          	add	a1,a1,a5
    800004a0:	0005c503          	lbu	a0,0(a1)
    800004a4:	00a03533          	snez	a0,a0
    800004a8:	40a00533          	neg	a0,a0
    800004ac:	00008067          	ret
    800004b0:	00100513          	li	a0,1
    800004b4:	fed77ce3          	bgeu	a4,a3,800004ac <strcmp+0x48>
    800004b8:	fff00513          	li	a0,-1
    800004bc:	00008067          	ret

00000000800004c0 <memcpy>:
    800004c0:	ff010113          	addi	sp,sp,-16
    800004c4:	00113423          	sd	ra,8(sp)
    800004c8:	04050463          	beqz	a0,80000510 <memcpy+0x50>
    800004cc:	04058263          	beqz	a1,80000510 <memcpy+0x50>
    800004d0:	00c586b3          	add	a3,a1,a2
    800004d4:	02d56663          	bltu	a0,a3,80000500 <memcpy+0x40>
    800004d8:	00050793          	mv	a5,a0
    800004dc:	00060c63          	beqz	a2,800004f4 <memcpy+0x34>
    800004e0:	0005c703          	lbu	a4,0(a1)
    800004e4:	00158593          	addi	a1,a1,1
    800004e8:	00178793          	addi	a5,a5,1
    800004ec:	fee78fa3          	sb	a4,-1(a5)
    800004f0:	feb698e3          	bne	a3,a1,800004e0 <memcpy+0x20>
    800004f4:	00813083          	ld	ra,8(sp)
    800004f8:	01010113          	addi	sp,sp,16
    800004fc:	00008067          	ret
    80000500:	00c507b3          	add	a5,a0,a2
    80000504:	fcb7eae3          	bltu	a5,a1,800004d8 <memcpy+0x18>
    80000508:	04a00613          	li	a2,74
    8000050c:	0080006f          	j	80000514 <memcpy+0x54>
    80000510:	04900613          	li	a2,73
    80000514:	00000597          	auipc	a1,0x0
    80000518:	0ec58593          	addi	a1,a1,236 # 80000600 <s.1490+0x18>
    8000051c:	00000517          	auipc	a0,0x0
    80000520:	0ac50513          	addi	a0,a0,172 # 800005c8 <_etext+0x98>
    80000524:	e39ff0ef          	jal	ra,8000035c <printf>
    80000528:	00100513          	li	a0,1
    8000052c:	bd5ff0ef          	jal	ra,80000100 <halt>
