
/home/zgs/project/ysyx-workbench/am-kernels/tests/cpu-tests/build/hello-str-riscv64-npc.elf:     file format elf64-littleriscv


Disassembly of section .text:

0000000080000000 <_start>:
    80000000:	00000413          	li	s0,0
    80000004:	00009117          	auipc	sp,0x9
    80000008:	ffc10113          	addi	sp,sp,-4 # 80009000 <_end>
    8000000c:	0f4000ef          	jal	ra,80000100 <_trm_init>

0000000080000010 <check>:
    80000010:	00050463          	beqz	a0,80000018 <check+0x8>
    80000014:	00008067          	ret
    80000018:	ff010113          	addi	sp,sp,-16
    8000001c:	00100513          	li	a0,1
    80000020:	00113423          	sd	ra,8(sp)
    80000024:	0d0000ef          	jal	ra,800000f4 <halt>

0000000080000028 <main>:
    80000028:	ff010113          	addi	sp,sp,-16
    8000002c:	00000617          	auipc	a2,0x0
    80000030:	73460613          	addi	a2,a2,1844 # 80000760 <_etext>
    80000034:	00000597          	auipc	a1,0x0
    80000038:	73c58593          	addi	a1,a1,1852 # 80000770 <_etext+0x10>
    8000003c:	00001517          	auipc	a0,0x1
    80000040:	84450513          	addi	a0,a0,-1980 # 80000880 <buf>
    80000044:	00113423          	sd	ra,8(sp)
    80000048:	5e8000ef          	jal	ra,80000630 <sprintf>
    8000004c:	00000597          	auipc	a1,0x0
    80000050:	71458593          	addi	a1,a1,1812 # 80000760 <_etext>
    80000054:	00001517          	auipc	a0,0x1
    80000058:	82c50513          	addi	a0,a0,-2004 # 80000880 <buf>
    8000005c:	638000ef          	jal	ra,80000694 <strcmp>
    80000060:	00153513          	seqz	a0,a0
    80000064:	fadff0ef          	jal	ra,80000010 <check>
    80000068:	00200713          	li	a4,2
    8000006c:	00100693          	li	a3,1
    80000070:	00100613          	li	a2,1
    80000074:	00000597          	auipc	a1,0x0
    80000078:	70458593          	addi	a1,a1,1796 # 80000778 <_etext+0x18>
    8000007c:	00001517          	auipc	a0,0x1
    80000080:	80450513          	addi	a0,a0,-2044 # 80000880 <buf>
    80000084:	5ac000ef          	jal	ra,80000630 <sprintf>
    80000088:	00000597          	auipc	a1,0x0
    8000008c:	70058593          	addi	a1,a1,1792 # 80000788 <_etext+0x28>
    80000090:	00000517          	auipc	a0,0x0
    80000094:	7f050513          	addi	a0,a0,2032 # 80000880 <buf>
    80000098:	5fc000ef          	jal	ra,80000694 <strcmp>
    8000009c:	00153513          	seqz	a0,a0
    800000a0:	f71ff0ef          	jal	ra,80000010 <check>
    800000a4:	00c00713          	li	a4,12
    800000a8:	00a00693          	li	a3,10
    800000ac:	00200613          	li	a2,2
    800000b0:	00000597          	auipc	a1,0x0
    800000b4:	6c858593          	addi	a1,a1,1736 # 80000778 <_etext+0x18>
    800000b8:	00000517          	auipc	a0,0x0
    800000bc:	7c850513          	addi	a0,a0,1992 # 80000880 <buf>
    800000c0:	570000ef          	jal	ra,80000630 <sprintf>
    800000c4:	00000597          	auipc	a1,0x0
    800000c8:	6d458593          	addi	a1,a1,1748 # 80000798 <_etext+0x38>
    800000cc:	00000517          	auipc	a0,0x0
    800000d0:	7b450513          	addi	a0,a0,1972 # 80000880 <buf>
    800000d4:	5c0000ef          	jal	ra,80000694 <strcmp>
    800000d8:	00153513          	seqz	a0,a0
    800000dc:	f35ff0ef          	jal	ra,80000010 <check>
    800000e0:	00813083          	ld	ra,8(sp)
    800000e4:	00000513          	li	a0,0
    800000e8:	01010113          	addi	sp,sp,16
    800000ec:	00008067          	ret

00000000800000f0 <putch>:
    800000f0:	00008067          	ret

00000000800000f4 <halt>:
    800000f4:	00050513          	mv	a0,a0
    800000f8:	00100073          	ebreak
    800000fc:	0000006f          	j	800000fc <halt+0x8>

0000000080000100 <_trm_init>:
    80000100:	ff010113          	addi	sp,sp,-16
    80000104:	00000517          	auipc	a0,0x0
    80000108:	77450513          	addi	a0,a0,1908 # 80000878 <mainargs>
    8000010c:	00113423          	sd	ra,8(sp)
    80000110:	f19ff0ef          	jal	ra,80000028 <main>
    80000114:	00050513          	mv	a0,a0
    80000118:	00100073          	ebreak
    8000011c:	0000006f          	j	8000011c <_trm_init+0x1c>

0000000080000120 <_i2a>:
    80000120:	00158e13          	addi	t3,a1,1
    80000124:	00058313          	mv	t1,a1
    80000128:	00055c63          	bgez	a0,80000140 <_i2a+0x20>
    8000012c:	02d00793          	li	a5,45
    80000130:	000e0313          	mv	t1,t3
    80000134:	00f58023          	sb	a5,0(a1)
    80000138:	40a0053b          	negw	a0,a0
    8000013c:	00258e13          	addi	t3,a1,2
    80000140:	00900793          	li	a5,9
    80000144:	02a7c263          	blt	a5,a0,80000168 <_i2a+0x48>
    80000148:	00000797          	auipc	a5,0x0
    8000014c:	6d078793          	addi	a5,a5,1744 # 80000818 <s.1489>
    80000150:	00a78533          	add	a0,a5,a0
    80000154:	00054783          	lbu	a5,0(a0)
    80000158:	000300a3          	sb	zero,1(t1)
    8000015c:	40be053b          	subw	a0,t3,a1
    80000160:	00f30023          	sb	a5,0(t1)
    80000164:	00008067          	ret
    80000168:	fe010113          	addi	sp,sp,-32
    8000016c:	00010893          	mv	a7,sp
    80000170:	00088693          	mv	a3,a7
    80000174:	00000797          	auipc	a5,0x0
    80000178:	6a478793          	addi	a5,a5,1700 # 80000818 <s.1489>
    8000017c:	02c5673b          	remw	a4,a0,a2
    80000180:	00068813          	mv	a6,a3
    80000184:	00168693          	addi	a3,a3,1
    80000188:	02c5453b          	divw	a0,a0,a2
    8000018c:	00e78733          	add	a4,a5,a4
    80000190:	00074703          	lbu	a4,0(a4)
    80000194:	fee68fa3          	sb	a4,-1(a3)
    80000198:	fe0512e3          	bnez	a0,8000017c <_i2a+0x5c>
    8000019c:	03180863          	beq	a6,a7,800001cc <_i2a+0xac>
    800001a0:	00080793          	mv	a5,a6
    800001a4:	00030693          	mv	a3,t1
    800001a8:	0080006f          	j	800001b0 <_i2a+0x90>
    800001ac:	0007c703          	lbu	a4,0(a5)
    800001b0:	00e68023          	sb	a4,0(a3)
    800001b4:	fff78793          	addi	a5,a5,-1
    800001b8:	00168693          	addi	a3,a3,1
    800001bc:	ff1798e3          	bne	a5,a7,800001ac <_i2a+0x8c>
    800001c0:	40f807b3          	sub	a5,a6,a5
    800001c4:	00f30333          	add	t1,t1,a5
    800001c8:	00130e13          	addi	t3,t1,1
    800001cc:	00014783          	lbu	a5,0(sp)
    800001d0:	000300a3          	sb	zero,1(t1)
    800001d4:	40be053b          	subw	a0,t3,a1
    800001d8:	00f30023          	sb	a5,0(t1)
    800001dc:	02010113          	addi	sp,sp,32
    800001e0:	00008067          	ret

00000000800001e4 <_ui2a>:
    800001e4:	00900793          	li	a5,9
    800001e8:	02a7e263          	bltu	a5,a0,8000020c <_ui2a+0x28>
    800001ec:	00000797          	auipc	a5,0x0
    800001f0:	62c78793          	addi	a5,a5,1580 # 80000818 <s.1489>
    800001f4:	00a78533          	add	a0,a5,a0
    800001f8:	00054783          	lbu	a5,0(a0)
    800001fc:	000580a3          	sb	zero,1(a1)
    80000200:	00100513          	li	a0,1
    80000204:	00f58023          	sb	a5,0(a1)
    80000208:	00008067          	ret
    8000020c:	fe010113          	addi	sp,sp,-32
    80000210:	00010893          	mv	a7,sp
    80000214:	00158e13          	addi	t3,a1,1
    80000218:	00088693          	mv	a3,a7
    8000021c:	00000317          	auipc	t1,0x0
    80000220:	5fc30313          	addi	t1,t1,1532 # 80000818 <s.1489>
    80000224:	02c57733          	remu	a4,a0,a2
    80000228:	00068813          	mv	a6,a3
    8000022c:	00168693          	addi	a3,a3,1
    80000230:	00050793          	mv	a5,a0
    80000234:	00e30733          	add	a4,t1,a4
    80000238:	00074703          	lbu	a4,0(a4)
    8000023c:	02c55533          	divu	a0,a0,a2
    80000240:	fee68fa3          	sb	a4,-1(a3)
    80000244:	fec7f0e3          	bgeu	a5,a2,80000224 <_ui2a+0x40>
    80000248:	05180463          	beq	a6,a7,80000290 <_ui2a+0xac>
    8000024c:	00080793          	mv	a5,a6
    80000250:	00058693          	mv	a3,a1
    80000254:	0080006f          	j	8000025c <_ui2a+0x78>
    80000258:	0007c703          	lbu	a4,0(a5)
    8000025c:	00e68023          	sb	a4,0(a3)
    80000260:	fff78793          	addi	a5,a5,-1
    80000264:	00168693          	addi	a3,a3,1
    80000268:	ff1798e3          	bne	a5,a7,80000258 <_ui2a+0x74>
    8000026c:	40f807b3          	sub	a5,a6,a5
    80000270:	00f587b3          	add	a5,a1,a5
    80000274:	00178e13          	addi	t3,a5,1
    80000278:	00014703          	lbu	a4,0(sp)
    8000027c:	000780a3          	sb	zero,1(a5)
    80000280:	40be053b          	subw	a0,t3,a1
    80000284:	00e78023          	sb	a4,0(a5)
    80000288:	02010113          	addi	sp,sp,32
    8000028c:	00008067          	ret
    80000290:	00058793          	mv	a5,a1
    80000294:	fe5ff06f          	j	80000278 <_ui2a+0x94>

0000000080000298 <vsprintf>:
    80000298:	f3010113          	addi	sp,sp,-208
    8000029c:	0c813023          	sd	s0,192(sp)
    800002a0:	0c113423          	sd	ra,200(sp)
    800002a4:	0a913c23          	sd	s1,184(sp)
    800002a8:	0b213823          	sd	s2,176(sp)
    800002ac:	0b313423          	sd	s3,168(sp)
    800002b0:	0b413023          	sd	s4,160(sp)
    800002b4:	09513c23          	sd	s5,152(sp)
    800002b8:	09613823          	sd	s6,144(sp)
    800002bc:	09713423          	sd	s7,136(sp)
    800002c0:	09813023          	sd	s8,128(sp)
    800002c4:	07913c23          	sd	s9,120(sp)
    800002c8:	07a13823          	sd	s10,112(sp)
    800002cc:	07b13423          	sd	s11,104(sp)
    800002d0:	0d010413          	addi	s0,sp,208
    800002d4:	0005c783          	lbu	a5,0(a1)
    800002d8:	f2a43823          	sd	a0,-208(s0)
    800002dc:	28078863          	beqz	a5,8000056c <vsprintf+0x2d4>
    800002e0:	ffff8c37          	lui	s8,0xffff8
    800002e4:	830c4693          	xori	a3,s8,-2000
    800002e8:	00058493          	mv	s1,a1
    800002ec:	00060713          	mv	a4,a2
    800002f0:	00050993          	mv	s3,a0
    800002f4:	02500d13          	li	s10,37
    800002f8:	06400d93          	li	s11,100
    800002fc:	07000b13          	li	s6,112
    80000300:	f2d41f23          	sh	a3,-194(s0)
    80000304:	07300a93          	li	s5,115
    80000308:	0240006f          	j	8000032c <vsprintf+0x94>
    8000030c:	00090693          	mv	a3,s2
    80000310:	00f98023          	sb	a5,0(s3)
    80000314:	00048913          	mv	s2,s1
    80000318:	00100a13          	li	s4,1
    8000031c:	00068493          	mv	s1,a3
    80000320:	00194783          	lbu	a5,1(s2)
    80000324:	014989b3          	add	s3,s3,s4
    80000328:	0a078263          	beqz	a5,800003cc <vsprintf+0x134>
    8000032c:	00148913          	addi	s2,s1,1
    80000330:	fda79ee3          	bne	a5,s10,8000030c <vsprintf+0x74>
    80000334:	0014c783          	lbu	a5,1(s1)
    80000338:	00078c1b          	sext.w	s8,a5
    8000033c:	19b78863          	beq	a5,s11,800004cc <vsprintf+0x234>
    80000340:	04fde263          	bltu	s11,a5,80000384 <vsprintf+0xec>
    80000344:	03900693          	li	a3,57
    80000348:	0cf6e863          	bltu	a3,a5,80000418 <vsprintf+0x180>
    8000034c:	02f00693          	li	a3,47
    80000350:	10f6ee63          	bltu	a3,a5,8000046c <vsprintf+0x1d4>
    80000354:	000c0593          	mv	a1,s8
    80000358:	00000517          	auipc	a0,0x0
    8000035c:	45050513          	addi	a0,a0,1104 # 800007a8 <_etext+0x48>
    80000360:	22c000ef          	jal	ra,8000058c <printf>
    80000364:	09900613          	li	a2,153
    80000368:	00000597          	auipc	a1,0x0
    8000036c:	44858593          	addi	a1,a1,1096 # 800007b0 <_etext+0x50>
    80000370:	00000517          	auipc	a0,0x0
    80000374:	48850513          	addi	a0,a0,1160 # 800007f8 <_etext+0x98>
    80000378:	214000ef          	jal	ra,8000058c <printf>
    8000037c:	00100513          	li	a0,1
    80000380:	d75ff0ef          	jal	ra,800000f4 <halt>
    80000384:	0b679a63          	bne	a5,s6,80000438 <vsprintf+0x1a0>
    80000388:	f3e45783          	lhu	a5,-194(s0)
    8000038c:	00073503          	ld	a0,0(a4)
    80000390:	01000613          	li	a2,16
    80000394:	f4a40593          	addi	a1,s0,-182
    80000398:	00870c93          	addi	s9,a4,8
    8000039c:	f4f41423          	sh	a5,-184(s0)
    800003a0:	e45ff0ef          	jal	ra,800001e4 <_ui2a>
    800003a4:	00250a1b          	addiw	s4,a0,2
    800003a8:	00098513          	mv	a0,s3
    800003ac:	000a0613          	mv	a2,s4
    800003b0:	f4840593          	addi	a1,s0,-184
    800003b4:	33c000ef          	jal	ra,800006f0 <memcpy>
    800003b8:	00194783          	lbu	a5,1(s2)
    800003bc:	00248493          	addi	s1,s1,2
    800003c0:	000c8713          	mv	a4,s9
    800003c4:	014989b3          	add	s3,s3,s4
    800003c8:	f60792e3          	bnez	a5,8000032c <vsprintf+0x94>
    800003cc:	f3043783          	ld	a5,-208(s0)
    800003d0:	40f9853b          	subw	a0,s3,a5
    800003d4:	00098023          	sb	zero,0(s3)
    800003d8:	f3040113          	addi	sp,s0,-208
    800003dc:	0c813083          	ld	ra,200(sp)
    800003e0:	0c013403          	ld	s0,192(sp)
    800003e4:	0b813483          	ld	s1,184(sp)
    800003e8:	0b013903          	ld	s2,176(sp)
    800003ec:	0a813983          	ld	s3,168(sp)
    800003f0:	0a013a03          	ld	s4,160(sp)
    800003f4:	09813a83          	ld	s5,152(sp)
    800003f8:	09013b03          	ld	s6,144(sp)
    800003fc:	08813b83          	ld	s7,136(sp)
    80000400:	08013c03          	ld	s8,128(sp)
    80000404:	07813c83          	ld	s9,120(sp)
    80000408:	07013d03          	ld	s10,112(sp)
    8000040c:	06813d83          	ld	s11,104(sp)
    80000410:	0d010113          	addi	sp,sp,208
    80000414:	00008067          	ret
    80000418:	06300693          	li	a3,99
    8000041c:	f2d79ce3          	bne	a5,a3,80000354 <vsprintf+0xbc>
    80000420:	00072783          	lw	a5,0(a4)
    80000424:	00248493          	addi	s1,s1,2
    80000428:	00870713          	addi	a4,a4,8
    8000042c:	00f98023          	sb	a5,0(s3)
    80000430:	00100a13          	li	s4,1
    80000434:	eedff06f          	j	80000320 <vsprintf+0x88>
    80000438:	f1579ee3          	bne	a5,s5,80000354 <vsprintf+0xbc>
    8000043c:	00073c83          	ld	s9,0(a4)
    80000440:	00870b93          	addi	s7,a4,8
    80000444:	00248493          	addi	s1,s1,2
    80000448:	000c8513          	mv	a0,s9
    8000044c:	220000ef          	jal	ra,8000066c <strlen>
    80000450:	00050a1b          	sext.w	s4,a0
    80000454:	000a0613          	mv	a2,s4
    80000458:	000c8593          	mv	a1,s9
    8000045c:	00098513          	mv	a0,s3
    80000460:	290000ef          	jal	ra,800006f0 <memcpy>
    80000464:	000b8713          	mv	a4,s7
    80000468:	eb9ff06f          	j	80000320 <vsprintf+0x88>
    8000046c:	0024c583          	lbu	a1,2(s1)
    80000470:	00900693          	li	a3,9
    80000474:	fd05879b          	addiw	a5,a1,-48
    80000478:	0ff7f793          	andi	a5,a5,255
    8000047c:	0005859b          	sext.w	a1,a1
    80000480:	06f6e463          	bltu	a3,a5,800004e8 <vsprintf+0x250>
    80000484:	fd058b9b          	addiw	s7,a1,-48
    80000488:	0034c583          	lbu	a1,3(s1)
    8000048c:	00348913          	addi	s2,s1,3
    80000490:	0fb59463          	bne	a1,s11,80000578 <vsprintf+0x2e0>
    80000494:	00072503          	lw	a0,0(a4)
    80000498:	00a00613          	li	a2,10
    8000049c:	f4840593          	addi	a1,s0,-184
    800004a0:	00870c93          	addi	s9,a4,8
    800004a4:	c7dff0ef          	jal	ra,80000120 <_i2a>
    800004a8:	05754863          	blt	a0,s7,800004f8 <vsprintf+0x260>
    800004ac:	00050a13          	mv	s4,a0
    800004b0:	00050613          	mv	a2,a0
    800004b4:	f4840593          	addi	a1,s0,-184
    800004b8:	00098513          	mv	a0,s3
    800004bc:	234000ef          	jal	ra,800006f0 <memcpy>
    800004c0:	00190493          	addi	s1,s2,1
    800004c4:	000c8713          	mv	a4,s9
    800004c8:	e59ff06f          	j	80000320 <vsprintf+0x88>
    800004cc:	00072503          	lw	a0,0(a4)
    800004d0:	00a00613          	li	a2,10
    800004d4:	f4840593          	addi	a1,s0,-184
    800004d8:	00870c93          	addi	s9,a4,8
    800004dc:	c45ff0ef          	jal	ra,80000120 <_i2a>
    800004e0:	00050a13          	mv	s4,a0
    800004e4:	ec5ff06f          	j	800003a8 <vsprintf+0x110>
    800004e8:	fd0c0b9b          	addiw	s7,s8,-48
    800004ec:	00248913          	addi	s2,s1,2
    800004f0:	02000c13          	li	s8,32
    800004f4:	f9dff06f          	j	80000490 <vsprintf+0x1f8>
    800004f8:	00fb8793          	addi	a5,s7,15
    800004fc:	ff07f793          	andi	a5,a5,-16
    80000500:	00010493          	mv	s1,sp
    80000504:	40f10133          	sub	sp,sp,a5
    80000508:	000b8a13          	mv	s4,s7
    8000050c:	00010593          	mv	a1,sp
    80000510:	03705663          	blez	s7,8000053c <vsprintf+0x2a4>
    80000514:	40ab863b          	subw	a2,s7,a0
    80000518:	00000793          	li	a5,0
    8000051c:	00000713          	li	a4,0
    80000520:	4175053b          	subw	a0,a0,s7
    80000524:	02c75663          	bge	a4,a2,80000550 <vsprintf+0x2b8>
    80000528:	00f58733          	add	a4,a1,a5
    8000052c:	01870023          	sb	s8,0(a4)
    80000530:	00178793          	addi	a5,a5,1
    80000534:	0007871b          	sext.w	a4,a5
    80000538:	ff7746e3          	blt	a4,s7,80000524 <vsprintf+0x28c>
    8000053c:	000b8613          	mv	a2,s7
    80000540:	00098513          	mv	a0,s3
    80000544:	1ac000ef          	jal	ra,800006f0 <memcpy>
    80000548:	00048113          	mv	sp,s1
    8000054c:	f75ff06f          	j	800004c0 <vsprintf+0x228>
    80000550:	00f5073b          	addw	a4,a0,a5
    80000554:	f9040693          	addi	a3,s0,-112
    80000558:	00e68733          	add	a4,a3,a4
    8000055c:	fb874883          	lbu	a7,-72(a4)
    80000560:	00f58733          	add	a4,a1,a5
    80000564:	01170023          	sb	a7,0(a4)
    80000568:	fc9ff06f          	j	80000530 <vsprintf+0x298>
    8000056c:	f3043983          	ld	s3,-208(s0)
    80000570:	00000513          	li	a0,0
    80000574:	e61ff06f          	j	800003d4 <vsprintf+0x13c>
    80000578:	00000517          	auipc	a0,0x0
    8000057c:	23050513          	addi	a0,a0,560 # 800007a8 <_etext+0x48>
    80000580:	00c000ef          	jal	ra,8000058c <printf>
    80000584:	09100613          	li	a2,145
    80000588:	de1ff06f          	j	80000368 <vsprintf+0xd0>

000000008000058c <printf>:
    8000058c:	f9010113          	addi	sp,sp,-112
    80000590:	03810313          	addi	t1,sp,56
    80000594:	02b13c23          	sd	a1,56(sp)
    80000598:	04c13023          	sd	a2,64(sp)
    8000059c:	00050593          	mv	a1,a0
    800005a0:	00030613          	mv	a2,t1
    800005a4:	00000517          	auipc	a0,0x0
    800005a8:	35c50513          	addi	a0,a0,860 # 80000900 <print_buf>
    800005ac:	00913c23          	sd	s1,24(sp)
    800005b0:	01213823          	sd	s2,16(sp)
    800005b4:	02113423          	sd	ra,40(sp)
    800005b8:	02813023          	sd	s0,32(sp)
    800005bc:	04d13423          	sd	a3,72(sp)
    800005c0:	04e13823          	sd	a4,80(sp)
    800005c4:	04f13c23          	sd	a5,88(sp)
    800005c8:	07013023          	sd	a6,96(sp)
    800005cc:	07113423          	sd	a7,104(sp)
    800005d0:	00613423          	sd	t1,8(sp)
    800005d4:	cc5ff0ef          	jal	ra,80000298 <vsprintf>
    800005d8:	0005049b          	sext.w	s1,a0
    800005dc:	00050913          	mv	s2,a0
    800005e0:	02048a63          	beqz	s1,80000614 <printf+0x88>
    800005e4:	fff4849b          	addiw	s1,s1,-1
    800005e8:	02049493          	slli	s1,s1,0x20
    800005ec:	0204d493          	srli	s1,s1,0x20
    800005f0:	00000797          	auipc	a5,0x0
    800005f4:	31178793          	addi	a5,a5,785 # 80000901 <print_buf+0x1>
    800005f8:	00000417          	auipc	s0,0x0
    800005fc:	30840413          	addi	s0,s0,776 # 80000900 <print_buf>
    80000600:	00f484b3          	add	s1,s1,a5
    80000604:	00044503          	lbu	a0,0(s0)
    80000608:	00140413          	addi	s0,s0,1
    8000060c:	ae5ff0ef          	jal	ra,800000f0 <putch>
    80000610:	fe941ae3          	bne	s0,s1,80000604 <printf+0x78>
    80000614:	02813083          	ld	ra,40(sp)
    80000618:	02013403          	ld	s0,32(sp)
    8000061c:	01813483          	ld	s1,24(sp)
    80000620:	00090513          	mv	a0,s2
    80000624:	01013903          	ld	s2,16(sp)
    80000628:	07010113          	addi	sp,sp,112
    8000062c:	00008067          	ret

0000000080000630 <sprintf>:
    80000630:	fb010113          	addi	sp,sp,-80
    80000634:	02010313          	addi	t1,sp,32
    80000638:	02c13023          	sd	a2,32(sp)
    8000063c:	00030613          	mv	a2,t1
    80000640:	00113c23          	sd	ra,24(sp)
    80000644:	02d13423          	sd	a3,40(sp)
    80000648:	02e13823          	sd	a4,48(sp)
    8000064c:	02f13c23          	sd	a5,56(sp)
    80000650:	05013023          	sd	a6,64(sp)
    80000654:	05113423          	sd	a7,72(sp)
    80000658:	00613423          	sd	t1,8(sp)
    8000065c:	c3dff0ef          	jal	ra,80000298 <vsprintf>
    80000660:	01813083          	ld	ra,24(sp)
    80000664:	05010113          	addi	sp,sp,80
    80000668:	00008067          	ret

000000008000066c <strlen>:
    8000066c:	00054783          	lbu	a5,0(a0)
    80000670:	00078e63          	beqz	a5,8000068c <strlen+0x20>
    80000674:	00050793          	mv	a5,a0
    80000678:	0017c703          	lbu	a4,1(a5)
    8000067c:	00178793          	addi	a5,a5,1
    80000680:	fe071ce3          	bnez	a4,80000678 <strlen+0xc>
    80000684:	40a78533          	sub	a0,a5,a0
    80000688:	00008067          	ret
    8000068c:	00000513          	li	a0,0
    80000690:	00008067          	ret

0000000080000694 <strcmp>:
    80000694:	00054703          	lbu	a4,0(a0)
    80000698:	02070c63          	beqz	a4,800006d0 <strcmp+0x3c>
    8000069c:	00000793          	li	a5,0
    800006a0:	0100006f          	j	800006b0 <strcmp+0x1c>
    800006a4:	02e69e63          	bne	a3,a4,800006e0 <strcmp+0x4c>
    800006a8:	00064703          	lbu	a4,0(a2)
    800006ac:	02070063          	beqz	a4,800006cc <strcmp+0x38>
    800006b0:	00f586b3          	add	a3,a1,a5
    800006b4:	0006c683          	lbu	a3,0(a3)
    800006b8:	00178793          	addi	a5,a5,1
    800006bc:	00f50633          	add	a2,a0,a5
    800006c0:	fe0692e3          	bnez	a3,800006a4 <strcmp+0x10>
    800006c4:	00100513          	li	a0,1
    800006c8:	00008067          	ret
    800006cc:	00f585b3          	add	a1,a1,a5
    800006d0:	0005c503          	lbu	a0,0(a1)
    800006d4:	00a03533          	snez	a0,a0
    800006d8:	40a00533          	neg	a0,a0
    800006dc:	00008067          	ret
    800006e0:	00100513          	li	a0,1
    800006e4:	fed77ce3          	bgeu	a4,a3,800006dc <strcmp+0x48>
    800006e8:	fff00513          	li	a0,-1
    800006ec:	00008067          	ret

00000000800006f0 <memcpy>:
    800006f0:	ff010113          	addi	sp,sp,-16
    800006f4:	00113423          	sd	ra,8(sp)
    800006f8:	04050463          	beqz	a0,80000740 <memcpy+0x50>
    800006fc:	04058263          	beqz	a1,80000740 <memcpy+0x50>
    80000700:	00c586b3          	add	a3,a1,a2
    80000704:	02d56663          	bltu	a0,a3,80000730 <memcpy+0x40>
    80000708:	00050793          	mv	a5,a0
    8000070c:	00060c63          	beqz	a2,80000724 <memcpy+0x34>
    80000710:	0005c703          	lbu	a4,0(a1)
    80000714:	00158593          	addi	a1,a1,1
    80000718:	00178793          	addi	a5,a5,1
    8000071c:	fee78fa3          	sb	a4,-1(a5)
    80000720:	feb698e3          	bne	a3,a1,80000710 <memcpy+0x20>
    80000724:	00813083          	ld	ra,8(sp)
    80000728:	01010113          	addi	sp,sp,16
    8000072c:	00008067          	ret
    80000730:	00c507b3          	add	a5,a0,a2
    80000734:	fcb7eae3          	bltu	a5,a1,80000708 <memcpy+0x18>
    80000738:	04a00613          	li	a2,74
    8000073c:	0080006f          	j	80000744 <memcpy+0x54>
    80000740:	04900613          	li	a2,73
    80000744:	00000597          	auipc	a1,0x0
    80000748:	0ec58593          	addi	a1,a1,236 # 80000830 <s.1489+0x18>
    8000074c:	00000517          	auipc	a0,0x0
    80000750:	0ac50513          	addi	a0,a0,172 # 800007f8 <_etext+0x98>
    80000754:	e39ff0ef          	jal	ra,8000058c <printf>
    80000758:	00100513          	li	a0,1
    8000075c:	999ff0ef          	jal	ra,800000f4 <halt>
