
/home/zgs/project/ysyx-workbench/am-kernels/tests/am-tests/build/amtest-riscv64-npc.elf:     file format elf64-littleriscv


Disassembly of section .text:

0000000080000000 <_start>:
    80000000:	00000413          	li	s0,0
    80000004:	0009e117          	auipc	sp,0x9e
    80000008:	ffc10113          	addi	sp,sp,-4 # 8009e000 <_end>
    8000000c:	02c010ef          	jal	ra,80001038 <_trm_init>

0000000080000010 <main>:
    80000010:	fd010113          	addi	sp,sp,-48
    80000014:	02113423          	sd	ra,40(sp)
    80000018:	02813023          	sd	s0,32(sp)
    8000001c:	00913c23          	sd	s1,24(sp)
    80000020:	01213823          	sd	s2,16(sp)
    80000024:	01313423          	sd	s3,8(sp)
    80000028:	00054783          	lbu	a5,0(a0)
    8000002c:	01500713          	li	a4,21
    80000030:	f9f7879b          	addiw	a5,a5,-97
    80000034:	0ff7f793          	andi	a5,a5,255
    80000038:	02f76063          	bltu	a4,a5,80000058 <main+0x48>
    8000003c:	00002717          	auipc	a4,0x2
    80000040:	d0870713          	addi	a4,a4,-760 # 80001d44 <_etext+0x2c>
    80000044:	00279793          	slli	a5,a5,0x2
    80000048:	00e787b3          	add	a5,a5,a4
    8000004c:	0007a783          	lw	a5,0(a5)
    80000050:	00e787b3          	add	a5,a5,a4
    80000054:	00078067          	jr	a5
    80000058:	00002517          	auipc	a0,0x2
    8000005c:	cc050513          	addi	a0,a0,-832 # 80001d18 <_etext>
    80000060:	24d010ef          	jal	ra,80001aac <printf>
    80000064:	00002497          	auipc	s1,0x2
    80000068:	e0c48493          	addi	s1,s1,-500 # 80001e70 <tests+0x8>
    8000006c:	00000413          	li	s0,0
    80000070:	10000913          	li	s2,256
    80000074:	00002997          	auipc	s3,0x2
    80000078:	cc498993          	addi	s3,s3,-828 # 80001d38 <_etext+0x20>
    8000007c:	0014041b          	addiw	s0,s0,1
    80000080:	03240c63          	beq	s0,s2,800000b8 <main+0xa8>
    80000084:	0004b603          	ld	a2,0(s1)
    80000088:	00060863          	beqz	a2,80000098 <main+0x88>
    8000008c:	00040593          	mv	a1,s0
    80000090:	00098513          	mv	a0,s3
    80000094:	219010ef          	jal	ra,80001aac <printf>
    80000098:	00848493          	addi	s1,s1,8
    8000009c:	fe1ff06f          	j	8000007c <main+0x6c>
    800000a0:	00001797          	auipc	a5,0x1
    800000a4:	e4478793          	addi	a5,a5,-444 # 80000ee4 <audio_test>
    800000a8:	00095717          	auipc	a4,0x95
    800000ac:	5af73023          	sd	a5,1440(a4) # 80095648 <entry>
    800000b0:	228010ef          	jal	ra,800012d8 <ioe_init>
    800000b4:	631000ef          	jal	ra,80000ee4 <audio_test>
    800000b8:	02813083          	ld	ra,40(sp)
    800000bc:	02013403          	ld	s0,32(sp)
    800000c0:	01813483          	ld	s1,24(sp)
    800000c4:	01013903          	ld	s2,16(sp)
    800000c8:	00813983          	ld	s3,8(sp)
    800000cc:	00000513          	li	a0,0
    800000d0:	03010113          	addi	sp,sp,48
    800000d4:	00008067          	ret
    800000d8:	00000797          	auipc	a5,0x0
    800000dc:	10478793          	addi	a5,a5,260 # 800001dc <devscan>
    800000e0:	00095717          	auipc	a4,0x95
    800000e4:	56f73423          	sd	a5,1384(a4) # 80095648 <entry>
    800000e8:	1f0010ef          	jal	ra,800012d8 <ioe_init>
    800000ec:	0f0000ef          	jal	ra,800001dc <devscan>
    800000f0:	fc9ff06f          	j	800000b8 <main+0xa8>
    800000f4:	00000797          	auipc	a5,0x0
    800000f8:	38c78793          	addi	a5,a5,908 # 80000480 <hello>
    800000fc:	00095717          	auipc	a4,0x95
    80000100:	54f73623          	sd	a5,1356(a4) # 80095648 <entry>
    80000104:	37c000ef          	jal	ra,80000480 <hello>
    80000108:	fb1ff06f          	j	800000b8 <main+0xa8>
    8000010c:	00001797          	auipc	a5,0x1
    80000110:	c6c78793          	addi	a5,a5,-916 # 80000d78 <hello_intr>
    80000114:	00095717          	auipc	a4,0x95
    80000118:	52f73a23          	sd	a5,1332(a4) # 80095648 <entry>
    8000011c:	1bc010ef          	jal	ra,800012d8 <ioe_init>
    80000120:	00001517          	auipc	a0,0x1
    80000124:	bc450513          	addi	a0,a0,-1084 # 80000ce4 <simple_trap>
    80000128:	2ac010ef          	jal	ra,800013d4 <cte_init>
    8000012c:	44d000ef          	jal	ra,80000d78 <hello_intr>
    80000130:	f89ff06f          	j	800000b8 <main+0xa8>
    80000134:	00001797          	auipc	a5,0x1
    80000138:	cb478793          	addi	a5,a5,-844 # 80000de8 <keyboard_test>
    8000013c:	00095717          	auipc	a4,0x95
    80000140:	50f73623          	sd	a5,1292(a4) # 80095648 <entry>
    80000144:	194010ef          	jal	ra,800012d8 <ioe_init>
    80000148:	4a1000ef          	jal	ra,80000de8 <keyboard_test>
    8000014c:	f6dff06f          	j	800000b8 <main+0xa8>
    80000150:	00000517          	auipc	a0,0x0
    80000154:	30850513          	addi	a0,a0,776 # 80000458 <mp_print>
    80000158:	00095797          	auipc	a5,0x95
    8000015c:	4ea7b823          	sd	a0,1264(a5) # 80095648 <entry>
    80000160:	3fc010ef          	jal	ra,8000155c <mpe_init>
    80000164:	2f4000ef          	jal	ra,80000458 <mp_print>
    80000168:	f51ff06f          	j	800000b8 <main+0xa8>
    8000016c:	00001797          	auipc	a5,0x1
    80000170:	a0878793          	addi	a5,a5,-1528 # 80000b74 <vm_test>
    80000174:	00001517          	auipc	a0,0x1
    80000178:	88050513          	addi	a0,a0,-1920 # 800009f4 <vm_handler>
    8000017c:	00095717          	auipc	a4,0x95
    80000180:	4cf73623          	sd	a5,1228(a4) # 80095648 <entry>
    80000184:	250010ef          	jal	ra,800013d4 <cte_init>
    80000188:	00001597          	auipc	a1,0x1
    8000018c:	86858593          	addi	a1,a1,-1944 # 800009f0 <simple_pgfree>
    80000190:	00001517          	auipc	a0,0x1
    80000194:	81c50513          	addi	a0,a0,-2020 # 800009ac <simple_pgalloc>
    80000198:	3a4010ef          	jal	ra,8000153c <vme_init>
    8000019c:	1d9000ef          	jal	ra,80000b74 <vm_test>
    800001a0:	f19ff06f          	j	800000b8 <main+0xa8>
    800001a4:	00000797          	auipc	a5,0x0
    800001a8:	32878793          	addi	a5,a5,808 # 800004cc <rtc_test>
    800001ac:	00095717          	auipc	a4,0x95
    800001b0:	48f73e23          	sd	a5,1180(a4) # 80095648 <entry>
    800001b4:	124010ef          	jal	ra,800012d8 <ioe_init>
    800001b8:	314000ef          	jal	ra,800004cc <rtc_test>
    800001bc:	efdff06f          	j	800000b8 <main+0xa8>
    800001c0:	00000797          	auipc	a5,0x0
    800001c4:	74078793          	addi	a5,a5,1856 # 80000900 <video_test>
    800001c8:	00095717          	auipc	a4,0x95
    800001cc:	48f73023          	sd	a5,1152(a4) # 80095648 <entry>
    800001d0:	108010ef          	jal	ra,800012d8 <ioe_init>
    800001d4:	72c000ef          	jal	ra,80000900 <video_test>
    800001d8:	ee1ff06f          	j	800000b8 <main+0xa8>

00000000800001dc <devscan>:
    800001dc:	00011797          	auipc	a5,0x11
    800001e0:	e3478793          	addi	a5,a5,-460 # 80011010 <heap>
    800001e4:	0007b583          	ld	a1,0(a5)
    800001e8:	0087b603          	ld	a2,8(a5)
    800001ec:	fb010113          	addi	sp,sp,-80
    800001f0:	00002517          	auipc	a0,0x2
    800001f4:	47850513          	addi	a0,a0,1144 # 80002668 <tests+0x800>
    800001f8:	04113423          	sd	ra,72(sp)
    800001fc:	03213823          	sd	s2,48(sp)
    80000200:	04813023          	sd	s0,64(sp)
    80000204:	02913c23          	sd	s1,56(sp)
    80000208:	03313423          	sd	s3,40(sp)
    8000020c:	03413023          	sd	s4,32(sp)
    80000210:	09d010ef          	jal	ra,80001aac <printf>
    80000214:	00002517          	auipc	a0,0x2
    80000218:	46c50513          	addi	a0,a0,1132 # 80002680 <tests+0x818>
    8000021c:	091010ef          	jal	ra,80001aac <printf>
    80000220:	00810593          	addi	a1,sp,8
    80000224:	00600513          	li	a0,6
    80000228:	118010ef          	jal	ra,80001340 <ioe_read>
    8000022c:	00813903          	ld	s2,8(sp)
    80000230:	3e800793          	li	a5,1000
    80000234:	00012223          	sw	zero,4(sp)
    80000238:	02f95933          	divu	s2,s2,a5
    8000023c:	00412703          	lw	a4,4(sp)
    80000240:	009897b7          	lui	a5,0x989
    80000244:	67f78793          	addi	a5,a5,1663 # 98967f <_entry_offset+0x98967f>
    80000248:	0007071b          	sext.w	a4,a4
    8000024c:	0009091b          	sext.w	s2,s2
    80000250:	00e7ce63          	blt	a5,a4,8000026c <devscan+0x90>
    80000254:	00412703          	lw	a4,4(sp)
    80000258:	0017071b          	addiw	a4,a4,1
    8000025c:	00e12223          	sw	a4,4(sp)
    80000260:	00412703          	lw	a4,4(sp)
    80000264:	0007071b          	sext.w	a4,a4
    80000268:	fee7d6e3          	bge	a5,a4,80000254 <devscan+0x78>
    8000026c:	00810593          	addi	a1,sp,8
    80000270:	00600513          	li	a0,6
    80000274:	0cc010ef          	jal	ra,80001340 <ioe_read>
    80000278:	00813583          	ld	a1,8(sp)
    8000027c:	3e800793          	li	a5,1000
    80000280:	00002517          	auipc	a0,0x2
    80000284:	42050513          	addi	a0,a0,1056 # 800026a0 <tests+0x838>
    80000288:	02f5d5b3          	divu	a1,a1,a5
    8000028c:	00011417          	auipc	s0,0x11
    80000290:	46c40413          	addi	s0,s0,1132 # 800116f8 <vmem+0xd0>
    80000294:	00091497          	auipc	s1,0x91
    80000298:	39448493          	addi	s1,s1,916 # 80091628 <canvas>
    8000029c:	412585bb          	subw	a1,a1,s2
    800002a0:	00d010ef          	jal	ra,80001aac <printf>
    800002a4:	00810593          	addi	a1,sp,8
    800002a8:	00900513          	li	a0,9
    800002ac:	094010ef          	jal	ra,80001340 <ioe_read>
    800002b0:	00c12983          	lw	s3,12(sp)
    800002b4:	01012903          	lw	s2,16(sp)
    800002b8:	00002517          	auipc	a0,0x2
    800002bc:	40850513          	addi	a0,a0,1032 # 800026c0 <tests+0x858>
    800002c0:	00098593          	mv	a1,s3
    800002c4:	00090613          	mv	a2,s2
    800002c8:	7e4010ef          	jal	ra,80001aac <printf>
    800002cc:	2a0010ef          	jal	ra,8000156c <rand>
    800002d0:	00a40023          	sb	a0,0(s0)
    800002d4:	00140413          	addi	s0,s0,1
    800002d8:	fe941ae3          	bne	s0,s1,800002cc <devscan+0xf0>
    800002dc:	41f9d71b          	sraiw	a4,s3,0x1f
    800002e0:	01e7571b          	srliw	a4,a4,0x1e
    800002e4:	0137073b          	addw	a4,a4,s3
    800002e8:	00011797          	auipc	a5,0x11
    800002ec:	34078793          	addi	a5,a5,832 # 80011628 <vmem>
    800002f0:	4027571b          	sraiw	a4,a4,0x2
    800002f4:	00e79323          	sh	a4,6(a5)
    800002f8:	00011717          	auipc	a4,0x11
    800002fc:	32071c23          	sh	zero,824(a4) # 80011630 <vmem+0x8>
    80000300:	01f9d69b          	srliw	a3,s3,0x1f
    80000304:	02500713          	li	a4,37
    80000308:	ffff0637          	lui	a2,0xffff0
    8000030c:	00e79923          	sh	a4,18(a5)
    80000310:	013686bb          	addw	a3,a3,s3
    80000314:	0016061b          	addiw	a2,a2,1
    80000318:	00a00713          	li	a4,10
    8000031c:	fff00813          	li	a6,-1
    80000320:	4016d69b          	sraiw	a3,a3,0x1
    80000324:	00c7a023          	sw	a2,0(a5)
    80000328:	00e79a23          	sh	a4,20(a5)
    8000032c:	fff00613          	li	a2,-1
    80000330:	0d000713          	li	a4,208
    80000334:	f9c9091b          	addiw	s2,s2,-100
    80000338:	00e79b23          	sh	a4,22(a5)
    8000033c:	00d79523          	sh	a3,10(a5)
    80000340:	01079723          	sh	a6,14(a5)
    80000344:	01079823          	sh	a6,16(a5)
    80000348:	00c79223          	sh	a2,4(a5)
    8000034c:	01279623          	sh	s2,12(a5)
    80000350:	00810593          	addi	a1,sp,8
    80000354:	00c00513          	li	a0,12
    80000358:	00f13823          	sd	a5,16(sp)
    8000035c:	000807b7          	lui	a5,0x80
    80000360:	00f12c23          	sw	a5,24(sp)
    80000364:	00011717          	auipc	a4,0x11
    80000368:	2c071e23          	sh	zero,732(a4) # 80011640 <vmem+0x18>
    8000036c:	00012423          	sw	zero,8(sp)
    80000370:	7ed000ef          	jal	ra,8000135c <ioe_write>
    80000374:	00d00513          	li	a0,13
    80000378:	00810593          	addi	a1,sp,8
    8000037c:	00012423          	sw	zero,8(sp)
    80000380:	7dd000ef          	jal	ra,8000135c <ioe_write>
    80000384:	00810593          	addi	a1,sp,8
    80000388:	01200513          	li	a0,18
    8000038c:	7b5000ef          	jal	ra,80001340 <ioe_read>
    80000390:	00c12403          	lw	s0,12(sp)
    80000394:	01012583          	lw	a1,16(sp)
    80000398:	00002517          	auipc	a0,0x2
    8000039c:	34050513          	addi	a0,a0,832 # 800026d8 <tests+0x870>
    800003a0:	00040613          	mv	a2,s0
    800003a4:	708010ef          	jal	ra,80001aac <printf>
    800003a8:	20000793          	li	a5,512
    800003ac:	0287c7bb          	divw	a5,a5,s0
    800003b0:	00011497          	auipc	s1,0x11
    800003b4:	07848493          	addi	s1,s1,120 # 80011428 <buf.1513>
    800003b8:	00810593          	addi	a1,sp,8
    800003bc:	01400513          	li	a0,20
    800003c0:	00913823          	sd	s1,16(sp)
    800003c4:	00010423          	sb	zero,8(sp)
    800003c8:	00012c23          	sw	zero,24(sp)
    800003cc:	00002917          	auipc	s2,0x2
    800003d0:	34490913          	addi	s2,s2,836 # 80002710 <tests+0x8a8>
    800003d4:	00011417          	auipc	s0,0x11
    800003d8:	05640413          	addi	s0,s0,86 # 8001142a <buf.1513+0x2>
    800003dc:	00011997          	auipc	s3,0x11
    800003e0:	24c98993          	addi	s3,s3,588 # 80011628 <vmem>
    800003e4:	00003a17          	auipc	s4,0x3
    800003e8:	9aca0a13          	addi	s4,s4,-1620 # 80002d90 <dy.1524+0x570>
    800003ec:	00f12e23          	sw	a5,28(sp)
    800003f0:	76d000ef          	jal	ra,8000135c <ioe_write>
    800003f4:	0014c603          	lbu	a2,1(s1)
    800003f8:	0004c583          	lbu	a1,0(s1)
    800003fc:	00090513          	mv	a0,s2
    80000400:	00400493          	li	s1,4
    80000404:	6a8010ef          	jal	ra,80001aac <printf>
    80000408:	408484bb          	subw	s1,s1,s0
    8000040c:	00090513          	mv	a0,s2
    80000410:	03340463          	beq	s0,s3,80000438 <devscan+0x25c>
    80000414:	00144603          	lbu	a2,1(s0)
    80000418:	00044583          	lbu	a1,0(s0)
    8000041c:	690010ef          	jal	ra,80001aac <printf>
    80000420:	008487bb          	addw	a5,s1,s0
    80000424:	01f7f793          	andi	a5,a5,31
    80000428:	02078063          	beqz	a5,80000448 <devscan+0x26c>
    8000042c:	00240413          	addi	s0,s0,2
    80000430:	00090513          	mv	a0,s2
    80000434:	ff3410e3          	bne	s0,s3,80000414 <devscan+0x238>
    80000438:	00002517          	auipc	a0,0x2
    8000043c:	2e850513          	addi	a0,a0,744 # 80002720 <tests+0x8b8>
    80000440:	66c010ef          	jal	ra,80001aac <printf>
    80000444:	0000006f          	j	80000444 <devscan+0x268>
    80000448:	000a0513          	mv	a0,s4
    8000044c:	660010ef          	jal	ra,80001aac <printf>
    80000450:	00240413          	addi	s0,s0,2
    80000454:	fddff06f          	j	80000430 <devscan+0x254>

0000000080000458 <mp_print>:
    80000458:	ff010113          	addi	sp,sp,-16
    8000045c:	00813023          	sd	s0,0(sp)
    80000460:	00113423          	sd	ra,8(sp)
    80000464:	00002417          	auipc	s0,0x2
    80000468:	2cc40413          	addi	s0,s0,716 # 80002730 <tests+0x8c8>
    8000046c:	0f8010ef          	jal	ra,80001564 <cpu_current>
    80000470:	00050593          	mv	a1,a0
    80000474:	00040513          	mv	a0,s0
    80000478:	634010ef          	jal	ra,80001aac <printf>
    8000047c:	ff1ff06f          	j	8000046c <mp_print+0x14>

0000000080000480 <hello>:
    80000480:	fe010113          	addi	sp,sp,-32
    80000484:	00913423          	sd	s1,8(sp)
    80000488:	00113c23          	sd	ra,24(sp)
    8000048c:	00813823          	sd	s0,16(sp)
    80000490:	00a00493          	li	s1,10
    80000494:	00002417          	auipc	s0,0x2
    80000498:	2a440413          	addi	s0,s0,676 # 80002738 <tests+0x8d0>
    8000049c:	04800513          	li	a0,72
    800004a0:	00140413          	addi	s0,s0,1
    800004a4:	379000ef          	jal	ra,8000101c <putch>
    800004a8:	00044503          	lbu	a0,0(s0)
    800004ac:	fe051ae3          	bnez	a0,800004a0 <hello+0x20>
    800004b0:	fff4849b          	addiw	s1,s1,-1
    800004b4:	fe0490e3          	bnez	s1,80000494 <hello+0x14>
    800004b8:	01813083          	ld	ra,24(sp)
    800004bc:	01013403          	ld	s0,16(sp)
    800004c0:	00813483          	ld	s1,8(sp)
    800004c4:	02010113          	addi	sp,sp,32
    800004c8:	00008067          	ret

00000000800004cc <rtc_test>:
    800004cc:	fa010113          	addi	sp,sp,-96
    800004d0:	04913423          	sd	s1,72(sp)
    800004d4:	000f44b7          	lui	s1,0xf4
    800004d8:	04813823          	sd	s0,80(sp)
    800004dc:	03313c23          	sd	s3,56(sp)
    800004e0:	03413823          	sd	s4,48(sp)
    800004e4:	03513423          	sd	s5,40(sp)
    800004e8:	03613023          	sd	s6,32(sp)
    800004ec:	04113c23          	sd	ra,88(sp)
    800004f0:	05213023          	sd	s2,64(sp)
    800004f4:	00100413          	li	s0,1
    800004f8:	24048493          	addi	s1,s1,576 # f4240 <_entry_offset+0xf4240>
    800004fc:	00002a17          	auipc	s4,0x2
    80000500:	25ca0a13          	addi	s4,s4,604 # 80002758 <tests+0x8f0>
    80000504:	00100993          	li	s3,1
    80000508:	00002b17          	auipc	s6,0x2
    8000050c:	278b0b13          	addi	s6,s6,632 # 80002780 <tests+0x918>
    80000510:	00002a97          	auipc	s5,0x2
    80000514:	260a8a93          	addi	s5,s5,608 # 80002770 <tests+0x908>
    80000518:	0004091b          	sext.w	s2,s0
    8000051c:	00810593          	addi	a1,sp,8
    80000520:	00600513          	li	a0,6
    80000524:	61d000ef          	jal	ra,80001340 <ioe_read>
    80000528:	00813783          	ld	a5,8(sp)
    8000052c:	0297d7b3          	divu	a5,a5,s1
    80000530:	fe87e6e3          	bltu	a5,s0,8000051c <rtc_test+0x50>
    80000534:	00810593          	addi	a1,sp,8
    80000538:	00500513          	li	a0,5
    8000053c:	605000ef          	jal	ra,80001340 <ioe_read>
    80000540:	01c12803          	lw	a6,28(sp)
    80000544:	01812783          	lw	a5,24(sp)
    80000548:	01412703          	lw	a4,20(sp)
    8000054c:	01012683          	lw	a3,16(sp)
    80000550:	00c12603          	lw	a2,12(sp)
    80000554:	00812583          	lw	a1,8(sp)
    80000558:	000a0513          	mv	a0,s4
    8000055c:	550010ef          	jal	ra,80001aac <printf>
    80000560:	01341c63          	bne	s0,s3,80000578 <rtc_test+0xac>
    80000564:	00100593          	li	a1,1
    80000568:	000a8513          	mv	a0,s5
    8000056c:	540010ef          	jal	ra,80001aac <printf>
    80000570:	00140413          	addi	s0,s0,1
    80000574:	fa5ff06f          	j	80000518 <rtc_test+0x4c>
    80000578:	00090593          	mv	a1,s2
    8000057c:	000b0513          	mv	a0,s6
    80000580:	52c010ef          	jal	ra,80001aac <printf>
    80000584:	00140413          	addi	s0,s0,1
    80000588:	f91ff06f          	j	80000518 <rtc_test+0x4c>

000000008000058c <redraw>:
    8000058c:	f7010113          	addi	sp,sp,-144
    80000590:	00010593          	mv	a1,sp
    80000594:	00900513          	li	a0,9
    80000598:	08113423          	sd	ra,136(sp)
    8000059c:	08813023          	sd	s0,128(sp)
    800005a0:	07213823          	sd	s2,112(sp)
    800005a4:	07413023          	sd	s4,96(sp)
    800005a8:	05513c23          	sd	s5,88(sp)
    800005ac:	06913c23          	sd	s1,120(sp)
    800005b0:	07313423          	sd	s3,104(sp)
    800005b4:	05613823          	sd	s6,80(sp)
    800005b8:	05713423          	sd	s7,72(sp)
    800005bc:	05813023          	sd	s8,64(sp)
    800005c0:	03913c23          	sd	s9,56(sp)
    800005c4:	03a13823          	sd	s10,48(sp)
    800005c8:	03b13423          	sd	s11,40(sp)
    800005cc:	575000ef          	jal	ra,80001340 <ioe_read>
    800005d0:	00412783          	lw	a5,4(sp)
    800005d4:	00010593          	mv	a1,sp
    800005d8:	00900513          	li	a0,9
    800005dc:	41f7d41b          	sraiw	s0,a5,0x1f
    800005e0:	01b4541b          	srliw	s0,s0,0x1b
    800005e4:	00f4043b          	addw	s0,s0,a5
    800005e8:	559000ef          	jal	ra,80001340 <ioe_read>
    800005ec:	00812783          	lw	a5,8(sp)
    800005f0:	40545a1b          	sraiw	s4,s0,0x5
    800005f4:	40000713          	li	a4,1024
    800005f8:	41f7d91b          	sraiw	s2,a5,0x1f
    800005fc:	01b9591b          	srliw	s2,s2,0x1b
    80000600:	00f9093b          	addw	s2,s2,a5
    80000604:	4059591b          	sraiw	s2,s2,0x5
    80000608:	032a0abb          	mulw	s5,s4,s2
    8000060c:	0f576c63          	bltu	a4,s5,80000704 <redraw+0x178>
    80000610:	fffa841b          	addiw	s0,s5,-1
    80000614:	02041413          	slli	s0,s0,0x20
    80000618:	01e45413          	srli	s0,s0,0x1e
    8000061c:	00092797          	auipc	a5,0x92
    80000620:	01078793          	addi	a5,a5,16 # 8009262c <color_buf+0x4>
    80000624:	00091997          	auipc	s3,0x91
    80000628:	08498993          	addi	s3,s3,132 # 800916a8 <canvas+0x80>
    8000062c:	00092c17          	auipc	s8,0x92
    80000630:	07cc0c13          	addi	s8,s8,124 # 800926a8 <color_buf+0x80>
    80000634:	00092497          	auipc	s1,0x92
    80000638:	ff448493          	addi	s1,s1,-12 # 80092628 <color_buf>
    8000063c:	00f40433          	add	s0,s0,a5
    80000640:	00000c93          	li	s9,0
    80000644:	000a0b9b          	sext.w	s7,s4
    80000648:	000c8b1b          	sext.w	s6,s9
    8000064c:	f8098d13          	addi	s10,s3,-128
    80000650:	00000d93          	li	s11,0
    80000654:	000a8c63          	beqz	s5,8000066c <redraw+0xe0>
    80000658:	000d2703          	lw	a4,0(s10)
    8000065c:	00048793          	mv	a5,s1
    80000660:	00e7a023          	sw	a4,0(a5)
    80000664:	00478793          	addi	a5,a5,4
    80000668:	fe879ce3          	bne	a5,s0,80000660 <redraw+0xd4>
    8000066c:	004d0d13          	addi	s10,s10,4
    80000670:	00010593          	mv	a1,sp
    80000674:	00b00513          	li	a0,11
    80000678:	01b12023          	sw	s11,0(sp)
    8000067c:	01612223          	sw	s6,4(sp)
    80000680:	00913423          	sd	s1,8(sp)
    80000684:	01412823          	sw	s4,16(sp)
    80000688:	01212a23          	sw	s2,20(sp)
    8000068c:	00010c23          	sb	zero,24(sp)
    80000690:	017d8dbb          	addw	s11,s11,s7
    80000694:	4c9000ef          	jal	ra,8000135c <ioe_write>
    80000698:	fb3d1ee3          	bne	s10,s3,80000654 <redraw+0xc8>
    8000069c:	080d0993          	addi	s3,s10,128
    800006a0:	01990cbb          	addw	s9,s2,s9
    800006a4:	fb8992e3          	bne	s3,s8,80000648 <redraw+0xbc>
    800006a8:	00010593          	mv	a1,sp
    800006ac:	00100793          	li	a5,1
    800006b0:	00b00513          	li	a0,11
    800006b4:	00013023          	sd	zero,0(sp)
    800006b8:	00013423          	sd	zero,8(sp)
    800006bc:	00013823          	sd	zero,16(sp)
    800006c0:	00f10c23          	sb	a5,24(sp)
    800006c4:	499000ef          	jal	ra,8000135c <ioe_write>
    800006c8:	08813083          	ld	ra,136(sp)
    800006cc:	08013403          	ld	s0,128(sp)
    800006d0:	07813483          	ld	s1,120(sp)
    800006d4:	07013903          	ld	s2,112(sp)
    800006d8:	06813983          	ld	s3,104(sp)
    800006dc:	06013a03          	ld	s4,96(sp)
    800006e0:	05813a83          	ld	s5,88(sp)
    800006e4:	05013b03          	ld	s6,80(sp)
    800006e8:	04813b83          	ld	s7,72(sp)
    800006ec:	04013c03          	ld	s8,64(sp)
    800006f0:	03813c83          	ld	s9,56(sp)
    800006f4:	03013d03          	ld	s10,48(sp)
    800006f8:	02813d83          	ld	s11,40(sp)
    800006fc:	09010113          	addi	sp,sp,144
    80000700:	00008067          	ret
    80000704:	01600613          	li	a2,22
    80000708:	00002597          	auipc	a1,0x2
    8000070c:	08858593          	addi	a1,a1,136 # 80002790 <tests+0x928>
    80000710:	00002517          	auipc	a0,0x2
    80000714:	0d050513          	addi	a0,a0,208 # 800027e0 <tests+0x978>
    80000718:	394010ef          	jal	ra,80001aac <printf>
    8000071c:	00100513          	li	a0,1
    80000720:	10d000ef          	jal	ra,8000102c <halt>

0000000080000724 <update>:
    80000724:	00095617          	auipc	a2,0x95
    80000728:	f2c60613          	addi	a2,a2,-212 # 80095650 <tsc.1522>
    8000072c:	00062783          	lw	a5,0(a2)
    80000730:	fe010113          	addi	sp,sp,-32
    80000734:	00813c23          	sd	s0,24(sp)
    80000738:	00913823          	sd	s1,16(sp)
    8000073c:	01213423          	sd	s2,8(sp)
    80000740:	01313023          	sd	s3,0(sp)
    80000744:	0017839b          	addiw	t2,a5,1
    80000748:	00093717          	auipc	a4,0x93
    8000074c:	f6070713          	addi	a4,a4,-160 # 800936a8 <used+0x80>
    80000750:	00094697          	auipc	a3,0x94
    80000754:	f5868693          	addi	a3,a3,-168 # 800946a8 <stack.1508+0x60>
    80000758:	00762023          	sw	t2,0(a2)
    8000075c:	f8070793          	addi	a5,a4,-128
    80000760:	0007a023          	sw	zero,0(a5)
    80000764:	00478793          	addi	a5,a5,4
    80000768:	fee79ce3          	bne	a5,a4,80000760 <update+0x3c>
    8000076c:	08078713          	addi	a4,a5,128
    80000770:	fee696e3          	bne	a3,a4,8000075c <update+0x38>
    80000774:	0ff3f693          	andi	a3,t2,255
    80000778:	0016979b          	slliw	a5,a3,0x1
    8000077c:	00d787bb          	addw	a5,a5,a3
    80000780:	0036971b          	slliw	a4,a3,0x3
    80000784:	40d7073b          	subw	a4,a4,a3
    80000788:	0017979b          	slliw	a5,a5,0x1
    8000078c:	0ff7f793          	andi	a5,a5,255
    80000790:	0ff77713          	andi	a4,a4,255
    80000794:	0087171b          	slliw	a4,a4,0x8
    80000798:	0107979b          	slliw	a5,a5,0x10
    8000079c:	00e7e7b3          	or	a5,a5,a4
    800007a0:	0ff3f713          	andi	a4,t2,255
    800007a4:	00e7e7b3          	or	a5,a5,a4
    800007a8:	00091417          	auipc	s0,0x91
    800007ac:	e8040413          	addi	s0,s0,-384 # 80091628 <canvas>
    800007b0:	00093f97          	auipc	t6,0x93
    800007b4:	e78f8f93          	addi	t6,t6,-392 # 80093628 <used>
    800007b8:	00f42023          	sw	a5,0(s0)
    800007bc:	00100793          	li	a5,1
    800007c0:	00ffa023          	sw	a5,0(t6)
    800007c4:	00100693          	li	a3,1
    800007c8:	00000713          	li	a4,0
    800007cc:	00100f13          	li	t5,1
    800007d0:	00000593          	li	a1,0
    800007d4:	00000e93          	li	t4,0
    800007d8:	00000e13          	li	t3,0
    800007dc:	01f00813          	li	a6,31
    800007e0:	00002317          	auipc	t1,0x2
    800007e4:	03030313          	addi	t1,t1,48 # 80002810 <dx.1523>
    800007e8:	00002897          	auipc	a7,0x2
    800007ec:	03888893          	addi	a7,a7,56 # 80002820 <dy.1524>
    800007f0:	00100493          	li	s1,1
    800007f4:	40000293          	li	t0,1024
    800007f8:	00400613          	li	a2,4
    800007fc:	00ee07bb          	addw	a5,t3,a4
    80000800:	fff6061b          	addiw	a2,a2,-1
    80000804:	00158713          	addi	a4,a1,1
    80000808:	00de86bb          	addw	a3,t4,a3
    8000080c:	02f86063          	bltu	a6,a5,8000082c <update+0x108>
    80000810:	00579513          	slli	a0,a5,0x5
    80000814:	00d50533          	add	a0,a0,a3
    80000818:	00251513          	slli	a0,a0,0x2
    8000081c:	00af8933          	add	s2,t6,a0
    80000820:	00d86663          	bltu	a6,a3,8000082c <update+0x108>
    80000824:	00092983          	lw	s3,0(s2)
    80000828:	06098463          	beqz	s3,80000890 <update+0x16c>
    8000082c:	00377593          	andi	a1,a4,3
    80000830:	00259793          	slli	a5,a1,0x2
    80000834:	00f30733          	add	a4,t1,a5
    80000838:	00f887b3          	add	a5,a7,a5
    8000083c:	02060a63          	beqz	a2,80000870 <update+0x14c>
    80000840:	00072703          	lw	a4,0(a4)
    80000844:	0007a683          	lw	a3,0(a5)
    80000848:	fff6061b          	addiw	a2,a2,-1
    8000084c:	00ee07bb          	addw	a5,t3,a4
    80000850:	00de86bb          	addw	a3,t4,a3
    80000854:	00158713          	addi	a4,a1,1
    80000858:	faf87ce3          	bgeu	a6,a5,80000810 <update+0xec>
    8000085c:	00377593          	andi	a1,a4,3
    80000860:	00259793          	slli	a5,a1,0x2
    80000864:	00f30733          	add	a4,t1,a5
    80000868:	00f887b3          	add	a5,a7,a5
    8000086c:	fc061ae3          	bnez	a2,80000840 <update+0x11c>
    80000870:	001f0f1b          	addiw	t5,t5,1
    80000874:	065f0a63          	beq	t5,t0,800008e8 <update+0x1c4>
    80000878:	00259793          	slli	a5,a1,0x2
    8000087c:	00f30733          	add	a4,t1,a5
    80000880:	00f887b3          	add	a5,a7,a5
    80000884:	00072703          	lw	a4,0(a4)
    80000888:	0007a683          	lw	a3,0(a5)
    8000088c:	f6dff06f          	j	800007f8 <update+0xd4>
    80000890:	401f5e1b          	sraiw	t3,t5,0x1
    80000894:	007e0e3b          	addw	t3,t3,t2
    80000898:	0ffe7e93          	andi	t4,t3,255
    8000089c:	001e971b          	slliw	a4,t4,0x1
    800008a0:	01d7073b          	addw	a4,a4,t4
    800008a4:	003e961b          	slliw	a2,t4,0x3
    800008a8:	41d6063b          	subw	a2,a2,t4
    800008ac:	0017171b          	slliw	a4,a4,0x1
    800008b0:	0ff77713          	andi	a4,a4,255
    800008b4:	0ff67613          	andi	a2,a2,255
    800008b8:	0107171b          	slliw	a4,a4,0x10
    800008bc:	0086161b          	slliw	a2,a2,0x8
    800008c0:	0ffe7e13          	andi	t3,t3,255
    800008c4:	00c76733          	or	a4,a4,a2
    800008c8:	01c76733          	or	a4,a4,t3
    800008cc:	00a40533          	add	a0,s0,a0
    800008d0:	00992023          	sw	s1,0(s2)
    800008d4:	00e52023          	sw	a4,0(a0)
    800008d8:	001f0f1b          	addiw	t5,t5,1
    800008dc:	00068e93          	mv	t4,a3
    800008e0:	00078e13          	mv	t3,a5
    800008e4:	f85f1ae3          	bne	t5,t0,80000878 <update+0x154>
    800008e8:	01813403          	ld	s0,24(sp)
    800008ec:	01013483          	ld	s1,16(sp)
    800008f0:	00813903          	ld	s2,8(sp)
    800008f4:	00013983          	ld	s3,0(sp)
    800008f8:	02010113          	addi	sp,sp,32
    800008fc:	00008067          	ret

0000000080000900 <video_test>:
    80000900:	fb010113          	addi	sp,sp,-80
    80000904:	02913c23          	sd	s1,56(sp)
    80000908:	03213823          	sd	s2,48(sp)
    8000090c:	03313423          	sd	s3,40(sp)
    80000910:	03413023          	sd	s4,32(sp)
    80000914:	01513c23          	sd	s5,24(sp)
    80000918:	01613823          	sd	s6,16(sp)
    8000091c:	04113423          	sd	ra,72(sp)
    80000920:	04813023          	sd	s0,64(sp)
    80000924:	00000a13          	li	s4,0
    80000928:	00000993          	li	s3,0
    8000092c:	00000913          	li	s2,0
    80000930:	3e800493          	li	s1,1000
    80000934:	02100a93          	li	s5,33
    80000938:	00002b17          	auipc	s6,0x2
    8000093c:	ec8b0b13          	addi	s6,s6,-312 # 80002800 <tests+0x998>
    80000940:	00810593          	addi	a1,sp,8
    80000944:	00600513          	li	a0,6
    80000948:	1f9000ef          	jal	ra,80001340 <ioe_read>
    8000094c:	00813403          	ld	s0,8(sp)
    80000950:	02945433          	divu	s0,s0,s1
    80000954:	412407b3          	sub	a5,s0,s2
    80000958:	04fae063          	bltu	s5,a5,80000998 <video_test+0x98>
    8000095c:	413407b3          	sub	a5,s0,s3
    80000960:	fef4f0e3          	bgeu	s1,a5,80000940 <video_test+0x40>
    80000964:	000a0613          	mv	a2,s4
    80000968:	00040593          	mv	a1,s0
    8000096c:	000b0513          	mv	a0,s6
    80000970:	13c010ef          	jal	ra,80001aac <printf>
    80000974:	00810593          	addi	a1,sp,8
    80000978:	00600513          	li	a0,6
    8000097c:	1c5000ef          	jal	ra,80001340 <ioe_read>
    80000980:	00040993          	mv	s3,s0
    80000984:	00813403          	ld	s0,8(sp)
    80000988:	00000a13          	li	s4,0
    8000098c:	02945433          	divu	s0,s0,s1
    80000990:	412407b3          	sub	a5,s0,s2
    80000994:	fcfaf4e3          	bgeu	s5,a5,8000095c <video_test+0x5c>
    80000998:	d8dff0ef          	jal	ra,80000724 <update>
    8000099c:	001a0a1b          	addiw	s4,s4,1
    800009a0:	bedff0ef          	jal	ra,8000058c <redraw>
    800009a4:	00040913          	mv	s2,s0
    800009a8:	fb5ff06f          	j	8000095c <video_test+0x5c>

00000000800009ac <simple_pgalloc>:
    800009ac:	00095617          	auipc	a2,0x95
    800009b0:	cac60613          	addi	a2,a2,-852 # 80095658 <st>
    800009b4:	00063683          	ld	a3,0(a2)
    800009b8:	00069663          	bnez	a3,800009c4 <simple_pgalloc+0x18>
    800009bc:	00010697          	auipc	a3,0x10
    800009c0:	6546b683          	ld	a3,1620(a3) # 80011010 <heap>
    800009c4:	02a6f7b3          	remu	a5,a3,a0
    800009c8:	00078c63          	beqz	a5,800009e0 <simple_pgalloc+0x34>
    800009cc:	00168793          	addi	a5,a3,1
    800009d0:	02a7f733          	remu	a4,a5,a0
    800009d4:	00078693          	mv	a3,a5
    800009d8:	00178793          	addi	a5,a5,1
    800009dc:	fe071ae3          	bnez	a4,800009d0 <simple_pgalloc+0x24>
    800009e0:	00d50533          	add	a0,a0,a3
    800009e4:	00a63023          	sd	a0,0(a2)
    800009e8:	00068513          	mv	a0,a3
    800009ec:	00008067          	ret

00000000800009f0 <simple_pgfree>:
    800009f0:	00008067          	ret

00000000800009f4 <vm_handler>:
    800009f4:	00052783          	lw	a5,0(a0)
    800009f8:	fe010113          	addi	sp,sp,-32
    800009fc:	00813823          	sd	s0,16(sp)
    80000a00:	00113c23          	sd	ra,24(sp)
    80000a04:	00300713          	li	a4,3
    80000a08:	00058413          	mv	s0,a1
    80000a0c:	0ce78663          	beq	a5,a4,80000ad8 <vm_handler+0xe4>
    80000a10:	08f76663          	bltu	a4,a5,80000a9c <vm_handler+0xa8>
    80000a14:	00100713          	li	a4,1
    80000a18:	0ae78063          	beq	a5,a4,80000ab8 <vm_handler+0xc4>
    80000a1c:	00200713          	li	a4,2
    80000a20:	12e79a63          	bne	a5,a4,80000b54 <vm_handler+0x160>
    80000a24:	00100513          	li	a0,1
    80000a28:	1d9000ef          	jal	ra,80001400 <iset>
    80000a2c:	00012623          	sw	zero,12(sp)
    80000a30:	00c12783          	lw	a5,12(sp)
    80000a34:	000f4737          	lui	a4,0xf4
    80000a38:	23f70713          	addi	a4,a4,575 # f423f <_entry_offset+0xf423f>
    80000a3c:	0007879b          	sext.w	a5,a5
    80000a40:	00f74e63          	blt	a4,a5,80000a5c <vm_handler+0x68>
    80000a44:	00c12783          	lw	a5,12(sp)
    80000a48:	0017879b          	addiw	a5,a5,1
    80000a4c:	00f12623          	sw	a5,12(sp)
    80000a50:	00c12783          	lw	a5,12(sp)
    80000a54:	0007879b          	sext.w	a5,a5
    80000a58:	fef756e3          	bge	a4,a5,80000a44 <vm_handler+0x50>
    80000a5c:	01043583          	ld	a1,16(s0)
    80000a60:	00002517          	auipc	a0,0x2
    80000a64:	e2050513          	addi	a0,a0,-480 # 80002880 <dy.1524+0x60>
    80000a68:	044010ef          	jal	ra,80001aac <printf>
    80000a6c:	00010797          	auipc	a5,0x10
    80000a70:	3047a783          	lw	a5,772(a5) # 80010d70 <first_trap>
    80000a74:	00078a63          	beqz	a5,80000a88 <vm_handler+0x94>
    80000a78:	00010797          	auipc	a5,0x10
    80000a7c:	2e07ac23          	sw	zero,760(a5) # 80010d70 <first_trap>
    80000a80:	00095417          	auipc	s0,0x95
    80000a84:	be043403          	ld	s0,-1056(s0) # 80095660 <uctx>
    80000a88:	01813083          	ld	ra,24(sp)
    80000a8c:	00040513          	mv	a0,s0
    80000a90:	01013403          	ld	s0,16(sp)
    80000a94:	02010113          	addi	sp,sp,32
    80000a98:	00008067          	ret
    80000a9c:	ffb7879b          	addiw	a5,a5,-5
    80000aa0:	00100713          	li	a4,1
    80000aa4:	0af76863          	bltu	a4,a5,80000b54 <vm_handler+0x160>
    80000aa8:	01853583          	ld	a1,24(a0)
    80000aac:	00002517          	auipc	a0,0x2
    80000ab0:	da450513          	addi	a0,a0,-604 # 80002850 <dy.1524+0x30>
    80000ab4:	7f9000ef          	jal	ra,80001aac <printf>
    80000ab8:	00010797          	auipc	a5,0x10
    80000abc:	2b87a783          	lw	a5,696(a5) # 80010d70 <first_trap>
    80000ac0:	fc0784e3          	beqz	a5,80000a88 <vm_handler+0x94>
    80000ac4:	00010797          	auipc	a5,0x10
    80000ac8:	2a07a623          	sw	zero,684(a5) # 80010d70 <first_trap>
    80000acc:	00095417          	auipc	s0,0x95
    80000ad0:	b9443403          	ld	s0,-1132(s0) # 80095660 <uctx>
    80000ad4:	fb5ff06f          	j	80000a88 <vm_handler+0x94>
    80000ad8:	00853783          	ld	a5,8(a0)
    80000adc:	01053583          	ld	a1,16(a0)
    80000ae0:	00002697          	auipc	a3,0x2
    80000ae4:	d5068693          	addi	a3,a3,-688 # 80002830 <dy.1524+0x10>
    80000ae8:	0017f713          	andi	a4,a5,1
    80000aec:	04070663          	beqz	a4,80000b38 <vm_handler+0x144>
    80000af0:	0027f793          	andi	a5,a5,2
    80000af4:	00002717          	auipc	a4,0x2
    80000af8:	d4c70713          	addi	a4,a4,-692 # 80002840 <dy.1524+0x20>
    80000afc:	00078e63          	beqz	a5,80000b18 <vm_handler+0x124>
    80000b00:	00002617          	auipc	a2,0x2
    80000b04:	cf860613          	addi	a2,a2,-776 # 800027f8 <tests+0x990>
    80000b08:	00002517          	auipc	a0,0x2
    80000b0c:	d6850513          	addi	a0,a0,-664 # 80002870 <dy.1524+0x50>
    80000b10:	79d000ef          	jal	ra,80001aac <printf>
    80000b14:	fa5ff06f          	j	80000ab8 <vm_handler+0xc4>
    80000b18:	00002717          	auipc	a4,0x2
    80000b1c:	ce070713          	addi	a4,a4,-800 # 800027f8 <tests+0x990>
    80000b20:	00002617          	auipc	a2,0x2
    80000b24:	cd860613          	addi	a2,a2,-808 # 800027f8 <tests+0x990>
    80000b28:	00002517          	auipc	a0,0x2
    80000b2c:	d4850513          	addi	a0,a0,-696 # 80002870 <dy.1524+0x50>
    80000b30:	77d000ef          	jal	ra,80001aac <printf>
    80000b34:	f85ff06f          	j	80000ab8 <vm_handler+0xc4>
    80000b38:	0027f793          	andi	a5,a5,2
    80000b3c:	00002697          	auipc	a3,0x2
    80000b40:	cbc68693          	addi	a3,a3,-836 # 800027f8 <tests+0x990>
    80000b44:	00002717          	auipc	a4,0x2
    80000b48:	cfc70713          	addi	a4,a4,-772 # 80002840 <dy.1524+0x20>
    80000b4c:	fa079ae3          	bnez	a5,80000b00 <vm_handler+0x10c>
    80000b50:	fc9ff06f          	j	80000b18 <vm_handler+0x124>
    80000b54:	02800613          	li	a2,40
    80000b58:	00002597          	auipc	a1,0x2
    80000b5c:	d3058593          	addi	a1,a1,-720 # 80002888 <dy.1524+0x68>
    80000b60:	00002517          	auipc	a0,0x2
    80000b64:	c8050513          	addi	a0,a0,-896 # 800027e0 <tests+0x978>
    80000b68:	745000ef          	jal	ra,80001aac <printf>
    80000b6c:	00100513          	li	a0,1
    80000b70:	4bc000ef          	jal	ra,8000102c <halt>

0000000080000b74 <vm_test>:
    80000b74:	fd010113          	addi	sp,sp,-48
    80000b78:	00300613          	li	a2,3
    80000b7c:	00002597          	auipc	a1,0x2
    80000b80:	d5c58593          	addi	a1,a1,-676 # 800028d8 <dy.1524+0xb8>
    80000b84:	00002517          	auipc	a0,0x2
    80000b88:	d5c50513          	addi	a0,a0,-676 # 800028e0 <dy.1524+0xc0>
    80000b8c:	02113423          	sd	ra,40(sp)
    80000b90:	02813023          	sd	s0,32(sp)
    80000b94:	00913c23          	sd	s1,24(sp)
    80000b98:	01213823          	sd	s2,16(sp)
    80000b9c:	0a4010ef          	jal	ra,80001c40 <strncmp>
    80000ba0:	00050e63          	beqz	a0,80000bbc <vm_test+0x48>
    80000ba4:	00002597          	auipc	a1,0x2
    80000ba8:	d4458593          	addi	a1,a1,-700 # 800028e8 <dy.1524+0xc8>
    80000bac:	00002517          	auipc	a0,0x2
    80000bb0:	d3450513          	addi	a0,a0,-716 # 800028e0 <dy.1524+0xc0>
    80000bb4:	030010ef          	jal	ra,80001be4 <strcmp>
    80000bb8:	10051663          	bnez	a0,80000cc4 <vm_test+0x150>
    80000bbc:	00094917          	auipc	s2,0x94
    80000bc0:	a6c90913          	addi	s2,s2,-1428 # 80094628 <prot>
    80000bc4:	00090513          	mv	a0,s2
    80000bc8:	17d000ef          	jal	ra,80001544 <protect>
    80000bcc:	01093603          	ld	a2,16(s2)
    80000bd0:	00893583          	ld	a1,8(s2)
    80000bd4:	00002517          	auipc	a0,0x2
    80000bd8:	d3c50513          	addi	a0,a0,-708 # 80002910 <dy.1524+0xf0>
    80000bdc:	6d1000ef          	jal	ra,80001aac <printf>
    80000be0:	00893783          	ld	a5,8(s2)
    80000be4:	01093483          	ld	s1,16(s2)
    80000be8:	00095697          	auipc	a3,0x95
    80000bec:	a7068693          	addi	a3,a3,-1424 # 80095658 <st>
    80000bf0:	0006b403          	ld	s0,0(a3)
    80000bf4:	40f484b3          	sub	s1,s1,a5
    80000bf8:	0014d493          	srli	s1,s1,0x1
    80000bfc:	00092603          	lw	a2,0(s2)
    80000c00:	00f484b3          	add	s1,s1,a5
    80000c04:	0a040a63          	beqz	s0,80000cb8 <vm_test+0x144>
    80000c08:	02c477b3          	remu	a5,s0,a2
    80000c0c:	00078c63          	beqz	a5,80000c24 <vm_test+0xb0>
    80000c10:	00140793          	addi	a5,s0,1
    80000c14:	02c7f733          	remu	a4,a5,a2
    80000c18:	00078413          	mv	s0,a5
    80000c1c:	00178793          	addi	a5,a5,1
    80000c20:	fe071ae3          	bnez	a4,80000c14 <vm_test+0xa0>
    80000c24:	008607b3          	add	a5,a2,s0
    80000c28:	00010597          	auipc	a1,0x10
    80000c2c:	13858593          	addi	a1,a1,312 # 80010d60 <code>
    80000c30:	00f00613          	li	a2,15
    80000c34:	00040513          	mv	a0,s0
    80000c38:	00f6b023          	sd	a5,0(a3)
    80000c3c:	06c010ef          	jal	ra,80001ca8 <memcpy>
    80000c40:	00300693          	li	a3,3
    80000c44:	00040613          	mv	a2,s0
    80000c48:	00048593          	mv	a1,s1
    80000c4c:	00094517          	auipc	a0,0x94
    80000c50:	9dc50513          	addi	a0,a0,-1572 # 80094628 <prot>
    80000c54:	0f5000ef          	jal	ra,80001548 <map>
    80000c58:	00040613          	mv	a2,s0
    80000c5c:	00048593          	mv	a1,s1
    80000c60:	00002517          	auipc	a0,0x2
    80000c64:	cd850513          	addi	a0,a0,-808 # 80002938 <dy.1524+0x118>
    80000c68:	645000ef          	jal	ra,80001aac <printf>
    80000c6c:	00048693          	mv	a3,s1
    80000c70:	00094597          	auipc	a1,0x94
    80000c74:	9d858593          	addi	a1,a1,-1576 # 80094648 <stack.1508>
    80000c78:	00095617          	auipc	a2,0x95
    80000c7c:	9d060613          	addi	a2,a2,-1584 # 80095648 <entry>
    80000c80:	00094517          	auipc	a0,0x94
    80000c84:	9a850513          	addi	a0,a0,-1624 # 80094628 <prot>
    80000c88:	0c5000ef          	jal	ra,8000154c <ucontext>
    80000c8c:	00050793          	mv	a5,a0
    80000c90:	00100513          	li	a0,1
    80000c94:	00095717          	auipc	a4,0x95
    80000c98:	9cf73623          	sd	a5,-1588(a4) # 80095660 <uctx>
    80000c9c:	764000ef          	jal	ra,80001400 <iset>
    80000ca0:	02013403          	ld	s0,32(sp)
    80000ca4:	02813083          	ld	ra,40(sp)
    80000ca8:	01813483          	ld	s1,24(sp)
    80000cac:	01013903          	ld	s2,16(sp)
    80000cb0:	03010113          	addi	sp,sp,48
    80000cb4:	7400006f          	j	800013f4 <yield>
    80000cb8:	00010417          	auipc	s0,0x10
    80000cbc:	35843403          	ld	s0,856(s0) # 80011010 <heap>
    80000cc0:	f49ff06f          	j	80000c08 <vm_test+0x94>
    80000cc4:	02013403          	ld	s0,32(sp)
    80000cc8:	02813083          	ld	ra,40(sp)
    80000ccc:	01813483          	ld	s1,24(sp)
    80000cd0:	01013903          	ld	s2,16(sp)
    80000cd4:	00002517          	auipc	a0,0x2
    80000cd8:	c1c50513          	addi	a0,a0,-996 # 800028f0 <dy.1524+0xd0>
    80000cdc:	03010113          	addi	sp,sp,48
    80000ce0:	5cd0006f          	j	80001aac <printf>

0000000080000ce4 <simple_trap>:
    80000ce4:	00052783          	lw	a5,0(a0)
    80000ce8:	ff010113          	addi	sp,sp,-16
    80000cec:	00813023          	sd	s0,0(sp)
    80000cf0:	00113423          	sd	ra,8(sp)
    80000cf4:	00500713          	li	a4,5
    80000cf8:	00058413          	mv	s0,a1
    80000cfc:	02e78463          	beq	a5,a4,80000d24 <simple_trap+0x40>
    80000d00:	00600713          	li	a4,6
    80000d04:	04e78c63          	beq	a5,a4,80000d5c <simple_trap+0x78>
    80000d08:	00100713          	li	a4,1
    80000d0c:	02e78a63          	beq	a5,a4,80000d40 <simple_trap+0x5c>
    80000d10:	00813083          	ld	ra,8(sp)
    80000d14:	00040513          	mv	a0,s0
    80000d18:	00013403          	ld	s0,0(sp)
    80000d1c:	01010113          	addi	sp,sp,16
    80000d20:	00008067          	ret
    80000d24:	07400513          	li	a0,116
    80000d28:	2f4000ef          	jal	ra,8000101c <putch>
    80000d2c:	00813083          	ld	ra,8(sp)
    80000d30:	00040513          	mv	a0,s0
    80000d34:	00013403          	ld	s0,0(sp)
    80000d38:	01010113          	addi	sp,sp,16
    80000d3c:	00008067          	ret
    80000d40:	07900513          	li	a0,121
    80000d44:	2d8000ef          	jal	ra,8000101c <putch>
    80000d48:	00813083          	ld	ra,8(sp)
    80000d4c:	00040513          	mv	a0,s0
    80000d50:	00013403          	ld	s0,0(sp)
    80000d54:	01010113          	addi	sp,sp,16
    80000d58:	00008067          	ret
    80000d5c:	06400513          	li	a0,100
    80000d60:	2bc000ef          	jal	ra,8000101c <putch>
    80000d64:	00813083          	ld	ra,8(sp)
    80000d68:	00040513          	mv	a0,s0
    80000d6c:	00013403          	ld	s0,0(sp)
    80000d70:	01010113          	addi	sp,sp,16
    80000d74:	00008067          	ret

0000000080000d78 <hello_intr>:
    80000d78:	fe010113          	addi	sp,sp,-32
    80000d7c:	00002517          	auipc	a0,0x2
    80000d80:	9bc50513          	addi	a0,a0,-1604 # 80002738 <tests+0x8d0>
    80000d84:	00113c23          	sd	ra,24(sp)
    80000d88:	00813823          	sd	s0,16(sp)
    80000d8c:	521000ef          	jal	ra,80001aac <printf>
    80000d90:	00002517          	auipc	a0,0x2
    80000d94:	bd850513          	addi	a0,a0,-1064 # 80002968 <dy.1524+0x148>
    80000d98:	515000ef          	jal	ra,80001aac <printf>
    80000d9c:	00810593          	addi	a1,sp,8
    80000da0:	00700513          	li	a0,7
    80000da4:	59c000ef          	jal	ra,80001340 <ioe_read>
    80000da8:	00100513          	li	a0,1
    80000dac:	00989437          	lui	s0,0x989
    80000db0:	650000ef          	jal	ra,80001400 <iset>
    80000db4:	67f40413          	addi	s0,s0,1663 # 98967f <_entry_offset+0x98967f>
    80000db8:	00012423          	sw	zero,8(sp)
    80000dbc:	00812783          	lw	a5,8(sp)
    80000dc0:	0007879b          	sext.w	a5,a5
    80000dc4:	00f44e63          	blt	s0,a5,80000de0 <hello_intr+0x68>
    80000dc8:	00812783          	lw	a5,8(sp)
    80000dcc:	0017879b          	addiw	a5,a5,1
    80000dd0:	00f12423          	sw	a5,8(sp)
    80000dd4:	00812783          	lw	a5,8(sp)
    80000dd8:	0007879b          	sext.w	a5,a5
    80000ddc:	fef456e3          	bge	s0,a5,80000dc8 <hello_intr+0x50>
    80000de0:	614000ef          	jal	ra,800013f4 <yield>
    80000de4:	fd5ff06f          	j	80000db8 <hello_intr+0x40>

0000000080000de8 <keyboard_test>:
    80000de8:	fb010113          	addi	sp,sp,-80
    80000dec:	00002517          	auipc	a0,0x2
    80000df0:	bb450513          	addi	a0,a0,-1100 # 800029a0 <dy.1524+0x180>
    80000df4:	04113423          	sd	ra,72(sp)
    80000df8:	04813023          	sd	s0,64(sp)
    80000dfc:	02913c23          	sd	s1,56(sp)
    80000e00:	03213823          	sd	s2,48(sp)
    80000e04:	03313423          	sd	s3,40(sp)
    80000e08:	03413023          	sd	s4,32(sp)
    80000e0c:	01513c23          	sd	s5,24(sp)
    80000e10:	49d000ef          	jal	ra,80001aac <printf>
    80000e14:	00810593          	addi	a1,sp,8
    80000e18:	00100513          	li	a0,1
    80000e1c:	524000ef          	jal	ra,80001340 <ioe_read>
    80000e20:	00814783          	lbu	a5,8(sp)
    80000e24:	00095497          	auipc	s1,0x95
    80000e28:	84548493          	addi	s1,s1,-1979 # 80095669 <has_uart>
    80000e2c:	00810593          	addi	a1,sp,8
    80000e30:	00700513          	li	a0,7
    80000e34:	00f48023          	sb	a5,0(s1)
    80000e38:	508000ef          	jal	ra,80001340 <ioe_read>
    80000e3c:	00814783          	lbu	a5,8(sp)
    80000e40:	00095417          	auipc	s0,0x95
    80000e44:	82840413          	addi	s0,s0,-2008 # 80095668 <has_kbd>
    80000e48:	00010a97          	auipc	s5,0x10
    80000e4c:	f30a8a93          	addi	s5,s5,-208 # 80010d78 <names>
    80000e50:	00f40023          	sb	a5,0(s0)
    80000e54:	00002a17          	auipc	s4,0x2
    80000e58:	b3ca0a13          	addi	s4,s4,-1220 # 80002990 <dy.1524+0x170>
    80000e5c:	00002997          	auipc	s3,0x2
    80000e60:	b3c98993          	addi	s3,s3,-1220 # 80002998 <dy.1524+0x178>
    80000e64:	00002917          	auipc	s2,0x2
    80000e68:	b8490913          	addi	s2,s2,-1148 # 800029e8 <dy.1524+0x1c8>
    80000e6c:	0004c703          	lbu	a4,0(s1)
    80000e70:	02070663          	beqz	a4,80000e9c <keyboard_test+0xb4>
    80000e74:	00002417          	auipc	s0,0x2
    80000e78:	b5c40413          	addi	s0,s0,-1188 # 800029d0 <dy.1524+0x1b0>
    80000e7c:	00810593          	addi	a1,sp,8
    80000e80:	00300513          	li	a0,3
    80000e84:	4bc000ef          	jal	ra,80001340 <ioe_read>
    80000e88:	00814603          	lbu	a2,8(sp)
    80000e8c:	00040513          	mv	a0,s0
    80000e90:	00060593          	mv	a1,a2
    80000e94:	419000ef          	jal	ra,80001aac <printf>
    80000e98:	fe5ff06f          	j	80000e7c <keyboard_test+0x94>
    80000e9c:	00079e63          	bnez	a5,80000eb8 <keyboard_test+0xd0>
    80000ea0:	0000006f          	j	80000ea0 <keyboard_test+0xb8>
    80000ea4:	0007b583          	ld	a1,0(a5)
    80000ea8:	000a0693          	mv	a3,s4
    80000eac:	00071463          	bnez	a4,80000eb4 <keyboard_test+0xcc>
    80000eb0:	00098693          	mv	a3,s3
    80000eb4:	3f9000ef          	jal	ra,80001aac <printf>
    80000eb8:	00800513          	li	a0,8
    80000ebc:	00810593          	addi	a1,sp,8
    80000ec0:	480000ef          	jal	ra,80001340 <ioe_read>
    80000ec4:	00c12603          	lw	a2,12(sp)
    80000ec8:	00814703          	lbu	a4,8(sp)
    80000ecc:	00090513          	mv	a0,s2
    80000ed0:	00361793          	slli	a5,a2,0x3
    80000ed4:	00fa87b3          	add	a5,s5,a5
    80000ed8:	fc0616e3          	bnez	a2,80000ea4 <keyboard_test+0xbc>
    80000edc:	00044783          	lbu	a5,0(s0)
    80000ee0:	f8dff06f          	j	80000e6c <keyboard_test+0x84>

0000000080000ee4 <audio_test>:
    80000ee4:	fc010113          	addi	sp,sp,-64
    80000ee8:	00010593          	mv	a1,sp
    80000eec:	00e00513          	li	a0,14
    80000ef0:	02113c23          	sd	ra,56(sp)
    80000ef4:	02813823          	sd	s0,48(sp)
    80000ef8:	02913423          	sd	s1,40(sp)
    80000efc:	03213023          	sd	s2,32(sp)
    80000f00:	01313c23          	sd	s3,24(sp)
    80000f04:	01413823          	sd	s4,16(sp)
    80000f08:	438000ef          	jal	ra,80001340 <ioe_read>
    80000f0c:	00014783          	lbu	a5,0(sp)
    80000f10:	0c078c63          	beqz	a5,80000fe8 <audio_test+0x104>
    80000f14:	040007b7          	lui	a5,0x4000
    80000f18:	07d78793          	addi	a5,a5,125 # 400007d <_entry_offset+0x400007d>
    80000f1c:	00679793          	slli	a5,a5,0x6
    80000f20:	00002497          	auipc	s1,0x2
    80000f24:	03048493          	addi	s1,s1,48 # 80002f50 <audio_payload>
    80000f28:	00010917          	auipc	s2,0x10
    80000f2c:	e3490913          	addi	s2,s2,-460 # 80010d5c <_data>
    80000f30:	00f13023          	sd	a5,0(sp)
    80000f34:	00010593          	mv	a1,sp
    80000f38:	40000793          	li	a5,1024
    80000f3c:	00f00513          	li	a0,15
    80000f40:	4099093b          	subw	s2,s2,s1
    80000f44:	00f12423          	sw	a5,8(sp)
    80000f48:	414000ef          	jal	ra,8000135c <ioe_write>
    80000f4c:	06090463          	beqz	s2,80000fb4 <audio_test+0xd0>
    80000f50:	00000413          	li	s0,0
    80000f54:	00000793          	li	a5,0
    80000f58:	00001a37          	lui	s4,0x1
    80000f5c:	00002997          	auipc	s3,0x2
    80000f60:	d8c98993          	addi	s3,s3,-628 # 80002ce8 <dy.1524+0x4c8>
    80000f64:	40f907bb          	subw	a5,s2,a5
    80000f68:	0007869b          	sext.w	a3,a5
    80000f6c:	00048713          	mv	a4,s1
    80000f70:	00010593          	mv	a1,sp
    80000f74:	01100513          	li	a0,17
    80000f78:	00da7463          	bgeu	s4,a3,80000f80 <audio_test+0x9c>
    80000f7c:	000017b7          	lui	a5,0x1
    80000f80:	02079693          	slli	a3,a5,0x20
    80000f84:	0206d693          	srli	a3,a3,0x20
    80000f88:	00d484b3          	add	s1,s1,a3
    80000f8c:	0087843b          	addw	s0,a5,s0
    80000f90:	00e13023          	sd	a4,0(sp)
    80000f94:	00913423          	sd	s1,8(sp)
    80000f98:	3c4000ef          	jal	ra,8000135c <ioe_write>
    80000f9c:	00090613          	mv	a2,s2
    80000fa0:	00040593          	mv	a1,s0
    80000fa4:	00098513          	mv	a0,s3
    80000fa8:	305000ef          	jal	ra,80001aac <printf>
    80000fac:	00040793          	mv	a5,s0
    80000fb0:	fb246ae3          	bltu	s0,s2,80000f64 <audio_test+0x80>
    80000fb4:	00010593          	mv	a1,sp
    80000fb8:	01000513          	li	a0,16
    80000fbc:	384000ef          	jal	ra,80001340 <ioe_read>
    80000fc0:	00012783          	lw	a5,0(sp)
    80000fc4:	fef048e3          	bgtz	a5,80000fb4 <audio_test+0xd0>
    80000fc8:	03813083          	ld	ra,56(sp)
    80000fcc:	03013403          	ld	s0,48(sp)
    80000fd0:	02813483          	ld	s1,40(sp)
    80000fd4:	02013903          	ld	s2,32(sp)
    80000fd8:	01813983          	ld	s3,24(sp)
    80000fdc:	01013a03          	ld	s4,16(sp)
    80000fe0:	04010113          	addi	sp,sp,64
    80000fe4:	00008067          	ret
    80000fe8:	00002597          	auipc	a1,0x2
    80000fec:	cc858593          	addi	a1,a1,-824 # 80002cb0 <dy.1524+0x490>
    80000ff0:	00002517          	auipc	a0,0x2
    80000ff4:	cd050513          	addi	a0,a0,-816 # 80002cc0 <dy.1524+0x4a0>
    80000ff8:	2b5000ef          	jal	ra,80001aac <printf>
    80000ffc:	03813083          	ld	ra,56(sp)
    80001000:	03013403          	ld	s0,48(sp)
    80001004:	02813483          	ld	s1,40(sp)
    80001008:	02013903          	ld	s2,32(sp)
    8000100c:	01813983          	ld	s3,24(sp)
    80001010:	01013a03          	ld	s4,16(sp)
    80001014:	04010113          	addi	sp,sp,64
    80001018:	00008067          	ret

000000008000101c <putch>:
    8000101c:	00500793          	li	a5,5
    80001020:	01d79793          	slli	a5,a5,0x1d
    80001024:	3ea78c23          	sb	a0,1016(a5) # 13f8 <_entry_offset+0x13f8>
    80001028:	00008067          	ret

000000008000102c <halt>:
    8000102c:	00050513          	mv	a0,a0
    80001030:	00100073          	ebreak
    80001034:	0000006f          	j	80001034 <halt+0x8>

0000000080001038 <_trm_init>:
    80001038:	ff010113          	addi	sp,sp,-16
    8000103c:	00002517          	auipc	a0,0x2
    80001040:	f0c50513          	addi	a0,a0,-244 # 80002f48 <mainargs>
    80001044:	00113423          	sd	ra,8(sp)
    80001048:	fc9fe0ef          	jal	ra,80000010 <main>
    8000104c:	00050513          	mv	a0,a0
    80001050:	00100073          	ebreak
    80001054:	0000006f          	j	80001054 <_trm_init+0x1c>

0000000080001058 <__am_timer_config>:
    80001058:	00100793          	li	a5,1
    8000105c:	00f50023          	sb	a5,0(a0)
    80001060:	00f500a3          	sb	a5,1(a0)
    80001064:	00008067          	ret

0000000080001068 <__am_input_config>:
    80001068:	00100793          	li	a5,1
    8000106c:	00f50023          	sb	a5,0(a0)
    80001070:	00008067          	ret

0000000080001074 <__am_uart_config>:
    80001074:	00050023          	sb	zero,0(a0)
    80001078:	00008067          	ret

000000008000107c <__am_timer_uptime>:
    8000107c:	00500713          	li	a4,5
    80001080:	01d71713          	slli	a4,a4,0x1d
    80001084:	04872783          	lw	a5,72(a4)
    80001088:	04c72703          	lw	a4,76(a4)
    8000108c:	00094697          	auipc	a3,0x94
    80001090:	5e46b683          	ld	a3,1508(a3) # 80095670 <start_time>
    80001094:	02079793          	slli	a5,a5,0x20
    80001098:	0207d793          	srli	a5,a5,0x20
    8000109c:	40d787b3          	sub	a5,a5,a3
    800010a0:	02071713          	slli	a4,a4,0x20
    800010a4:	00e787b3          	add	a5,a5,a4
    800010a8:	00f53023          	sd	a5,0(a0)
    800010ac:	00008067          	ret

00000000800010b0 <__am_timer_rtc>:
    800010b0:	76c00793          	li	a5,1900
    800010b4:	00052a23          	sw	zero,20(a0)
    800010b8:	00052823          	sw	zero,16(a0)
    800010bc:	00052623          	sw	zero,12(a0)
    800010c0:	00052423          	sw	zero,8(a0)
    800010c4:	00052223          	sw	zero,4(a0)
    800010c8:	00f52023          	sw	a5,0(a0)
    800010cc:	00008067          	ret

00000000800010d0 <__am_input_keybrd>:
    800010d0:	00500793          	li	a5,5
    800010d4:	01d79793          	slli	a5,a5,0x1d
    800010d8:	0607a783          	lw	a5,96(a5)
    800010dc:	0007879b          	sext.w	a5,a5
    800010e0:	40f7d71b          	sraiw	a4,a5,0xf
    800010e4:	03179793          	slli	a5,a5,0x31
    800010e8:	00177713          	andi	a4,a4,1
    800010ec:	0317d793          	srli	a5,a5,0x31
    800010f0:	00e50023          	sb	a4,0(a0)
    800010f4:	00f52223          	sw	a5,4(a0)
    800010f8:	00008067          	ret

00000000800010fc <__am_gpu_config>:
    800010fc:	00500793          	li	a5,5
    80001100:	00052223          	sw	zero,4(a0)
    80001104:	00052423          	sw	zero,8(a0)
    80001108:	00052623          	sw	zero,12(a0)
    8000110c:	01d79793          	slli	a5,a5,0x1d
    80001110:	1007a783          	lw	a5,256(a5)
    80001114:	00100713          	li	a4,1
    80001118:	00e51023          	sh	a4,0(a0)
    8000111c:	0107d69b          	srliw	a3,a5,0x10
    80001120:	03079793          	slli	a5,a5,0x30
    80001124:	0307d793          	srli	a5,a5,0x30
    80001128:	02f6873b          	mulw	a4,a3,a5
    8000112c:	00f52423          	sw	a5,8(a0)
    80001130:	00d52223          	sw	a3,4(a0)
    80001134:	0027179b          	slliw	a5,a4,0x2
    80001138:	00f52623          	sw	a5,12(a0)
    8000113c:	00008067          	ret

0000000080001140 <__am_gpu_fbdraw>:
    80001140:	00500793          	li	a5,5
    80001144:	fe010113          	addi	sp,sp,-32
    80001148:	01d79793          	slli	a5,a5,0x1d
    8000114c:	00452883          	lw	a7,4(a0)
    80001150:	01452283          	lw	t0,20(a0)
    80001154:	01213423          	sd	s2,8(sp)
    80001158:	00050913          	mv	s2,a0
    8000115c:	1007a503          	lw	a0,256(a5)
    80001160:	1007ae83          	lw	t4,256(a5)
    80001164:	00813c23          	sd	s0,24(sp)
    80001168:	00913823          	sd	s1,16(sp)
    8000116c:	01313023          	sd	s3,0(sp)
    80001170:	011282bb          	addw	t0,t0,a7
    80001174:	0105579b          	srliw	a5,a0,0x10
    80001178:	00893e03          	ld	t3,8(s2)
    8000117c:	00092383          	lw	t2,0(s2)
    80001180:	01092f83          	lw	t6,16(s2)
    80001184:	0105551b          	srliw	a0,a0,0x10
    80001188:	0a58d663          	bge	a7,t0,80001234 <__am_gpu_fbdraw+0xf4>
    8000118c:	030e9e93          	slli	t4,t4,0x30
    80001190:	030ede93          	srli	t4,t4,0x30
    80001194:	0008881b          	sext.w	a6,a7
    80001198:	09d8fe63          	bgeu	a7,t4,80001234 <__am_gpu_fbdraw+0xf4>
    8000119c:	19000713          	li	a4,400
    800011a0:	0307073b          	mulw	a4,a4,a6
    800011a4:	28400837          	lui	a6,0x28400
    800011a8:	00f8083b          	addw	a6,a6,a5
    800011ac:	ffff841b          	addiw	s0,t6,-1
    800011b0:	40f387bb          	subw	a5,t2,a5
    800011b4:	02041413          	slli	s0,s0,0x20
    800011b8:	01f384bb          	addw	s1,t2,t6
    800011bc:	000e8e9b          	sext.w	t4,t4
    800011c0:	000f8f9b          	sext.w	t6,t6
    800011c4:	0003899b          	sext.w	s3,t2
    800011c8:	00e8083b          	addw	a6,a6,a4
    800011cc:	00279f1b          	slliw	t5,a5,0x2
    800011d0:	0028181b          	slliw	a6,a6,0x2
    800011d4:	00000313          	li	t1,0
    800011d8:	02045413          	srli	s0,s0,0x20
    800011dc:	0493d263          	bge	t2,s1,80001220 <__am_gpu_fbdraw+0xe0>
    800011e0:	04a9f063          	bgeu	s3,a0,80001220 <__am_gpu_fbdraw+0xe0>
    800011e4:	006405b3          	add	a1,s0,t1
    800011e8:	00231793          	slli	a5,t1,0x2
    800011ec:	00259593          	slli	a1,a1,0x2
    800011f0:	00fe07b3          	add	a5,t3,a5
    800011f4:	01e8073b          	addw	a4,a6,t5
    800011f8:	00be05b3          	add	a1,t3,a1
    800011fc:	00c0006f          	j	80001208 <__am_gpu_fbdraw+0xc8>
    80001200:	00478793          	addi	a5,a5,4
    80001204:	01070e63          	beq	a4,a6,80001220 <__am_gpu_fbdraw+0xe0>
    80001208:	0007a603          	lw	a2,0(a5)
    8000120c:	02071693          	slli	a3,a4,0x20
    80001210:	0206d693          	srli	a3,a3,0x20
    80001214:	00c6a023          	sw	a2,0(a3)
    80001218:	0047071b          	addiw	a4,a4,4
    8000121c:	fef592e3          	bne	a1,a5,80001200 <__am_gpu_fbdraw+0xc0>
    80001220:	0018889b          	addiw	a7,a7,1
    80001224:	00588863          	beq	a7,t0,80001234 <__am_gpu_fbdraw+0xf4>
    80001228:	6408081b          	addiw	a6,a6,1600
    8000122c:	01f3033b          	addw	t1,t1,t6
    80001230:	fbd896e3          	bne	a7,t4,800011dc <__am_gpu_fbdraw+0x9c>
    80001234:	01894783          	lbu	a5,24(s2)
    80001238:	00078a63          	beqz	a5,8000124c <__am_gpu_fbdraw+0x10c>
    8000123c:	00500793          	li	a5,5
    80001240:	01d79793          	slli	a5,a5,0x1d
    80001244:	00100713          	li	a4,1
    80001248:	10e7a223          	sw	a4,260(a5)
    8000124c:	01813403          	ld	s0,24(sp)
    80001250:	01013483          	ld	s1,16(sp)
    80001254:	00813903          	ld	s2,8(sp)
    80001258:	00013983          	ld	s3,0(sp)
    8000125c:	02010113          	addi	sp,sp,32
    80001260:	00008067          	ret

0000000080001264 <__am_gpu_status>:
    80001264:	00100793          	li	a5,1
    80001268:	00f50023          	sb	a5,0(a0)
    8000126c:	00008067          	ret

0000000080001270 <fail>:
    80001270:	ff010113          	addi	sp,sp,-16
    80001274:	00813023          	sd	s0,0(sp)
    80001278:	00113423          	sd	ra,8(sp)
    8000127c:	00002417          	auipc	s0,0x2
    80001280:	a9440413          	addi	s0,s0,-1388 # 80002d10 <dy.1524+0x4f0>
    80001284:	04100513          	li	a0,65
    80001288:	00140413          	addi	s0,s0,1
    8000128c:	d91ff0ef          	jal	ra,8000101c <putch>
    80001290:	00044503          	lbu	a0,0(s0)
    80001294:	fe051ae3          	bnez	a0,80001288 <fail+0x18>
    80001298:	00002417          	auipc	s0,0x2
    8000129c:	a8840413          	addi	s0,s0,-1400 # 80002d20 <dy.1524+0x500>
    800012a0:	06100513          	li	a0,97
    800012a4:	00140413          	addi	s0,s0,1
    800012a8:	d75ff0ef          	jal	ra,8000101c <putch>
    800012ac:	00044503          	lbu	a0,0(s0)
    800012b0:	fe051ae3          	bnez	a0,800012a4 <fail+0x34>
    800012b4:	00002417          	auipc	s0,0x2
    800012b8:	a8c40413          	addi	s0,s0,-1396 # 80002d40 <dy.1524+0x520>
    800012bc:	02000513          	li	a0,32
    800012c0:	00140413          	addi	s0,s0,1
    800012c4:	d59ff0ef          	jal	ra,8000101c <putch>
    800012c8:	00044503          	lbu	a0,0(s0)
    800012cc:	fe051ae3          	bnez	a0,800012c0 <fail+0x50>
    800012d0:	00100513          	li	a0,1
    800012d4:	d59ff0ef          	jal	ra,8000102c <halt>

00000000800012d8 <ioe_init>:
    800012d8:	00010797          	auipc	a5,0x10
    800012dc:	d4878793          	addi	a5,a5,-696 # 80011020 <lut>
    800012e0:	00010697          	auipc	a3,0x10
    800012e4:	14068693          	addi	a3,a3,320 # 80011420 <next>
    800012e8:	00000617          	auipc	a2,0x0
    800012ec:	f8860613          	addi	a2,a2,-120 # 80001270 <fail>
    800012f0:	00c0006f          	j	800012fc <ioe_init+0x24>
    800012f4:	00878793          	addi	a5,a5,8
    800012f8:	00d78c63          	beq	a5,a3,80001310 <ioe_init+0x38>
    800012fc:	0007b703          	ld	a4,0(a5)
    80001300:	fe071ae3          	bnez	a4,800012f4 <ioe_init+0x1c>
    80001304:	00c7b023          	sd	a2,0(a5)
    80001308:	00878793          	addi	a5,a5,8
    8000130c:	fed798e3          	bne	a5,a3,800012fc <ioe_init+0x24>
    80001310:	00500793          	li	a5,5
    80001314:	01d79793          	slli	a5,a5,0x1d
    80001318:	0487a703          	lw	a4,72(a5)
    8000131c:	04c7a783          	lw	a5,76(a5)
    80001320:	00100513          	li	a0,1
    80001324:	02071713          	slli	a4,a4,0x20
    80001328:	02075713          	srli	a4,a4,0x20
    8000132c:	02079793          	slli	a5,a5,0x20
    80001330:	00e787b3          	add	a5,a5,a4
    80001334:	00094717          	auipc	a4,0x94
    80001338:	32f73e23          	sd	a5,828(a4) # 80095670 <start_time>
    8000133c:	00008067          	ret

0000000080001340 <ioe_read>:
    80001340:	00351793          	slli	a5,a0,0x3
    80001344:	00010517          	auipc	a0,0x10
    80001348:	cdc50513          	addi	a0,a0,-804 # 80011020 <lut>
    8000134c:	00f50533          	add	a0,a0,a5
    80001350:	00053303          	ld	t1,0(a0)
    80001354:	00058513          	mv	a0,a1
    80001358:	00030067          	jr	t1

000000008000135c <ioe_write>:
    8000135c:	fe5ff06f          	j	80001340 <ioe_read>

0000000080001360 <__am_irq_handle>:
    80001360:	00094797          	auipc	a5,0x94
    80001364:	3187b783          	ld	a5,792(a5) # 80095678 <user_handler>
    80001368:	00050593          	mv	a1,a0
    8000136c:	04078263          	beqz	a5,800013b0 <__am_irq_handle+0x50>
    80001370:	fb010113          	addi	sp,sp,-80
    80001374:	02013023          	sd	zero,32(sp)
    80001378:	00400713          	li	a4,4
    8000137c:	02e12023          	sw	a4,32(sp)
    80001380:	02013703          	ld	a4,32(sp)
    80001384:	04113423          	sd	ra,72(sp)
    80001388:	00013423          	sd	zero,8(sp)
    8000138c:	00013823          	sd	zero,16(sp)
    80001390:	00e13023          	sd	a4,0(sp)
    80001394:	00013c23          	sd	zero,24(sp)
    80001398:	00010513          	mv	a0,sp
    8000139c:	000780e7          	jalr	a5
    800013a0:	00050a63          	beqz	a0,800013b4 <__am_irq_handle+0x54>
    800013a4:	04813083          	ld	ra,72(sp)
    800013a8:	05010113          	addi	sp,sp,80
    800013ac:	00008067          	ret
    800013b0:	00008067          	ret
    800013b4:	00e00613          	li	a2,14
    800013b8:	00002597          	auipc	a1,0x2
    800013bc:	9e058593          	addi	a1,a1,-1568 # 80002d98 <dy.1524+0x578>
    800013c0:	00001517          	auipc	a0,0x1
    800013c4:	42050513          	addi	a0,a0,1056 # 800027e0 <tests+0x978>
    800013c8:	6e4000ef          	jal	ra,80001aac <printf>
    800013cc:	00100513          	li	a0,1
    800013d0:	c5dff0ef          	jal	ra,8000102c <halt>

00000000800013d4 <cte_init>:
    800013d4:	00050793          	mv	a5,a0
    800013d8:	00000717          	auipc	a4,0x0
    800013dc:	02c70713          	addi	a4,a4,44 # 80001404 <__am_asm_trap>
    800013e0:	30571073          	csrw	mtvec,a4
    800013e4:	00100513          	li	a0,1
    800013e8:	00094717          	auipc	a4,0x94
    800013ec:	28f73823          	sd	a5,656(a4) # 80095678 <user_handler>
    800013f0:	00008067          	ret

00000000800013f4 <yield>:
    800013f4:	fff00893          	li	a7,-1
    800013f8:	00000073          	ecall
    800013fc:	00008067          	ret

0000000080001400 <iset>:
    80001400:	00008067          	ret

0000000080001404 <__am_asm_trap>:
    80001404:	ee810113          	addi	sp,sp,-280
    80001408:	00113423          	sd	ra,8(sp)
    8000140c:	00313c23          	sd	gp,24(sp)
    80001410:	02413023          	sd	tp,32(sp)
    80001414:	02513423          	sd	t0,40(sp)
    80001418:	02613823          	sd	t1,48(sp)
    8000141c:	02713c23          	sd	t2,56(sp)
    80001420:	04813023          	sd	s0,64(sp)
    80001424:	04913423          	sd	s1,72(sp)
    80001428:	04a13823          	sd	a0,80(sp)
    8000142c:	04b13c23          	sd	a1,88(sp)
    80001430:	06c13023          	sd	a2,96(sp)
    80001434:	06d13423          	sd	a3,104(sp)
    80001438:	06e13823          	sd	a4,112(sp)
    8000143c:	06f13c23          	sd	a5,120(sp)
    80001440:	09013023          	sd	a6,128(sp)
    80001444:	09113423          	sd	a7,136(sp)
    80001448:	09213823          	sd	s2,144(sp)
    8000144c:	09313c23          	sd	s3,152(sp)
    80001450:	0b413023          	sd	s4,160(sp)
    80001454:	0b513423          	sd	s5,168(sp)
    80001458:	0b613823          	sd	s6,176(sp)
    8000145c:	0b713c23          	sd	s7,184(sp)
    80001460:	0d813023          	sd	s8,192(sp)
    80001464:	0d913423          	sd	s9,200(sp)
    80001468:	0da13823          	sd	s10,208(sp)
    8000146c:	0db13c23          	sd	s11,216(sp)
    80001470:	0fc13023          	sd	t3,224(sp)
    80001474:	0fd13423          	sd	t4,232(sp)
    80001478:	0fe13823          	sd	t5,240(sp)
    8000147c:	0ff13c23          	sd	t6,248(sp)
    80001480:	00010293          	mv	t0,sp
    80001484:	11828293          	addi	t0,t0,280
    80001488:	00513823          	sd	t0,16(sp)
    8000148c:	342022f3          	csrr	t0,mcause
    80001490:	30002373          	csrr	t1,mstatus
    80001494:	341023f3          	csrr	t2,mepc
    80001498:	10513023          	sd	t0,256(sp)
    8000149c:	10613423          	sd	t1,264(sp)
    800014a0:	10713823          	sd	t2,272(sp)
    800014a4:	00010513          	mv	a0,sp
    800014a8:	eb9ff0ef          	jal	ra,80001360 <__am_irq_handle>
    800014ac:	10813303          	ld	t1,264(sp)
    800014b0:	11013383          	ld	t2,272(sp)
    800014b4:	30031073          	csrw	mstatus,t1
    800014b8:	34139073          	csrw	mepc,t2
    800014bc:	00813083          	ld	ra,8(sp)
    800014c0:	01813183          	ld	gp,24(sp)
    800014c4:	02013203          	ld	tp,32(sp)
    800014c8:	02813283          	ld	t0,40(sp)
    800014cc:	03013303          	ld	t1,48(sp)
    800014d0:	03813383          	ld	t2,56(sp)
    800014d4:	04013403          	ld	s0,64(sp)
    800014d8:	04813483          	ld	s1,72(sp)
    800014dc:	05013503          	ld	a0,80(sp)
    800014e0:	05813583          	ld	a1,88(sp)
    800014e4:	06013603          	ld	a2,96(sp)
    800014e8:	06813683          	ld	a3,104(sp)
    800014ec:	07013703          	ld	a4,112(sp)
    800014f0:	07813783          	ld	a5,120(sp)
    800014f4:	08013803          	ld	a6,128(sp)
    800014f8:	08813883          	ld	a7,136(sp)
    800014fc:	09013903          	ld	s2,144(sp)
    80001500:	09813983          	ld	s3,152(sp)
    80001504:	0a013a03          	ld	s4,160(sp)
    80001508:	0a813a83          	ld	s5,168(sp)
    8000150c:	0b013b03          	ld	s6,176(sp)
    80001510:	0b813b83          	ld	s7,184(sp)
    80001514:	0c013c03          	ld	s8,192(sp)
    80001518:	0c813c83          	ld	s9,200(sp)
    8000151c:	0d013d03          	ld	s10,208(sp)
    80001520:	0d813d83          	ld	s11,216(sp)
    80001524:	0e013e03          	ld	t3,224(sp)
    80001528:	0e813e83          	ld	t4,232(sp)
    8000152c:	0f013f03          	ld	t5,240(sp)
    80001530:	0f813f83          	ld	t6,248(sp)
    80001534:	11810113          	addi	sp,sp,280
    80001538:	30200073          	mret

000000008000153c <vme_init>:
    8000153c:	00000513          	li	a0,0
    80001540:	00008067          	ret

0000000080001544 <protect>:
    80001544:	00008067          	ret

0000000080001548 <map>:
    80001548:	00008067          	ret

000000008000154c <ucontext>:
    8000154c:	ff010113          	addi	sp,sp,-16
    80001550:	00000513          	li	a0,0
    80001554:	01010113          	addi	sp,sp,16
    80001558:	00008067          	ret

000000008000155c <mpe_init>:
    8000155c:	00000513          	li	a0,0
    80001560:	00008067          	ret

0000000080001564 <cpu_current>:
    80001564:	00000513          	li	a0,0
    80001568:	00008067          	ret

000000008000156c <rand>:
    8000156c:	00010697          	auipc	a3,0x10
    80001570:	eb468693          	addi	a3,a3,-332 # 80011420 <next>
    80001574:	0006b783          	ld	a5,0(a3)
    80001578:	41c65737          	lui	a4,0x41c65
    8000157c:	e6d70713          	addi	a4,a4,-403 # 41c64e6d <_entry_offset+0x41c64e6d>
    80001580:	02e787b3          	mul	a5,a5,a4
    80001584:	00003737          	lui	a4,0x3
    80001588:	03970713          	addi	a4,a4,57 # 3039 <_entry_offset+0x3039>
    8000158c:	00e787b3          	add	a5,a5,a4
    80001590:	02179513          	slli	a0,a5,0x21
    80001594:	00f6b023          	sd	a5,0(a3)
    80001598:	03155513          	srli	a0,a0,0x31
    8000159c:	00008067          	ret

00000000800015a0 <_i2a>:
    800015a0:	00158e13          	addi	t3,a1,1
    800015a4:	00058313          	mv	t1,a1
    800015a8:	00055c63          	bgez	a0,800015c0 <_i2a+0x20>
    800015ac:	02d00793          	li	a5,45
    800015b0:	000e0313          	mv	t1,t3
    800015b4:	00f58023          	sb	a5,0(a1)
    800015b8:	40a0053b          	negw	a0,a0
    800015bc:	00258e13          	addi	t3,a1,2
    800015c0:	00900793          	li	a5,9
    800015c4:	02a7c263          	blt	a5,a0,800015e8 <_i2a+0x48>
    800015c8:	00002797          	auipc	a5,0x2
    800015cc:	87078793          	addi	a5,a5,-1936 # 80002e38 <s.1489>
    800015d0:	00a78533          	add	a0,a5,a0
    800015d4:	00054783          	lbu	a5,0(a0)
    800015d8:	000300a3          	sb	zero,1(t1)
    800015dc:	40be053b          	subw	a0,t3,a1
    800015e0:	00f30023          	sb	a5,0(t1)
    800015e4:	00008067          	ret
    800015e8:	fe010113          	addi	sp,sp,-32
    800015ec:	00010893          	mv	a7,sp
    800015f0:	00088693          	mv	a3,a7
    800015f4:	00002797          	auipc	a5,0x2
    800015f8:	84478793          	addi	a5,a5,-1980 # 80002e38 <s.1489>
    800015fc:	02c5673b          	remw	a4,a0,a2
    80001600:	00068813          	mv	a6,a3
    80001604:	00168693          	addi	a3,a3,1
    80001608:	02c5453b          	divw	a0,a0,a2
    8000160c:	00e78733          	add	a4,a5,a4
    80001610:	00074703          	lbu	a4,0(a4)
    80001614:	fee68fa3          	sb	a4,-1(a3)
    80001618:	fe0512e3          	bnez	a0,800015fc <_i2a+0x5c>
    8000161c:	03180863          	beq	a6,a7,8000164c <_i2a+0xac>
    80001620:	00080793          	mv	a5,a6
    80001624:	00030693          	mv	a3,t1
    80001628:	0080006f          	j	80001630 <_i2a+0x90>
    8000162c:	0007c703          	lbu	a4,0(a5)
    80001630:	00e68023          	sb	a4,0(a3)
    80001634:	fff78793          	addi	a5,a5,-1
    80001638:	00168693          	addi	a3,a3,1
    8000163c:	ff1798e3          	bne	a5,a7,8000162c <_i2a+0x8c>
    80001640:	40f807b3          	sub	a5,a6,a5
    80001644:	00f30333          	add	t1,t1,a5
    80001648:	00130e13          	addi	t3,t1,1
    8000164c:	00014783          	lbu	a5,0(sp)
    80001650:	000300a3          	sb	zero,1(t1)
    80001654:	40be053b          	subw	a0,t3,a1
    80001658:	00f30023          	sb	a5,0(t1)
    8000165c:	02010113          	addi	sp,sp,32
    80001660:	00008067          	ret

0000000080001664 <_ui2a>:
    80001664:	00900793          	li	a5,9
    80001668:	02a7e263          	bltu	a5,a0,8000168c <_ui2a+0x28>
    8000166c:	00001797          	auipc	a5,0x1
    80001670:	7cc78793          	addi	a5,a5,1996 # 80002e38 <s.1489>
    80001674:	00a78533          	add	a0,a5,a0
    80001678:	00054783          	lbu	a5,0(a0)
    8000167c:	000580a3          	sb	zero,1(a1)
    80001680:	00100513          	li	a0,1
    80001684:	00f58023          	sb	a5,0(a1)
    80001688:	00008067          	ret
    8000168c:	fe010113          	addi	sp,sp,-32
    80001690:	00010893          	mv	a7,sp
    80001694:	00158e13          	addi	t3,a1,1
    80001698:	00088693          	mv	a3,a7
    8000169c:	00001317          	auipc	t1,0x1
    800016a0:	79c30313          	addi	t1,t1,1948 # 80002e38 <s.1489>
    800016a4:	02c57733          	remu	a4,a0,a2
    800016a8:	00068813          	mv	a6,a3
    800016ac:	00168693          	addi	a3,a3,1
    800016b0:	00050793          	mv	a5,a0
    800016b4:	00e30733          	add	a4,t1,a4
    800016b8:	00074703          	lbu	a4,0(a4)
    800016bc:	02c55533          	divu	a0,a0,a2
    800016c0:	fee68fa3          	sb	a4,-1(a3)
    800016c4:	fec7f0e3          	bgeu	a5,a2,800016a4 <_ui2a+0x40>
    800016c8:	05180463          	beq	a6,a7,80001710 <_ui2a+0xac>
    800016cc:	00080793          	mv	a5,a6
    800016d0:	00058693          	mv	a3,a1
    800016d4:	0080006f          	j	800016dc <_ui2a+0x78>
    800016d8:	0007c703          	lbu	a4,0(a5)
    800016dc:	00e68023          	sb	a4,0(a3)
    800016e0:	fff78793          	addi	a5,a5,-1
    800016e4:	00168693          	addi	a3,a3,1
    800016e8:	ff1798e3          	bne	a5,a7,800016d8 <_ui2a+0x74>
    800016ec:	40f807b3          	sub	a5,a6,a5
    800016f0:	00f587b3          	add	a5,a1,a5
    800016f4:	00178e13          	addi	t3,a5,1
    800016f8:	00014703          	lbu	a4,0(sp)
    800016fc:	000780a3          	sb	zero,1(a5)
    80001700:	40be053b          	subw	a0,t3,a1
    80001704:	00e78023          	sb	a4,0(a5)
    80001708:	02010113          	addi	sp,sp,32
    8000170c:	00008067          	ret
    80001710:	00058793          	mv	a5,a1
    80001714:	fe5ff06f          	j	800016f8 <_ui2a+0x94>

0000000080001718 <vsprintf>:
    80001718:	ef010113          	addi	sp,sp,-272
    8000171c:	10813023          	sd	s0,256(sp)
    80001720:	10113423          	sd	ra,264(sp)
    80001724:	0e913c23          	sd	s1,248(sp)
    80001728:	0f213823          	sd	s2,240(sp)
    8000172c:	0f313423          	sd	s3,232(sp)
    80001730:	0f413023          	sd	s4,224(sp)
    80001734:	0d513c23          	sd	s5,216(sp)
    80001738:	0d613823          	sd	s6,208(sp)
    8000173c:	0d713423          	sd	s7,200(sp)
    80001740:	0d813023          	sd	s8,192(sp)
    80001744:	0b913c23          	sd	s9,184(sp)
    80001748:	0ba13823          	sd	s10,176(sp)
    8000174c:	0bb13423          	sd	s11,168(sp)
    80001750:	11010413          	addi	s0,sp,272
    80001754:	0005c783          	lbu	a5,0(a1)
    80001758:	eea43c23          	sd	a0,-264(s0)
    8000175c:	32078863          	beqz	a5,80001a8c <vsprintf+0x374>
    80001760:	ffff8c37          	lui	s8,0xffff8
    80001764:	00058493          	mv	s1,a1
    80001768:	00060a93          	mv	s5,a2
    8000176c:	00050993          	mv	s3,a0
    80001770:	02500c93          	li	s9,37
    80001774:	06400d13          	li	s10,100
    80001778:	07000b13          	li	s6,112
    8000177c:	830c4c13          	xori	s8,s8,-2000
    80001780:	0240006f          	j	800017a4 <vsprintf+0x8c>
    80001784:	00090713          	mv	a4,s2
    80001788:	00f98023          	sb	a5,0(s3)
    8000178c:	00048913          	mv	s2,s1
    80001790:	00100a13          	li	s4,1
    80001794:	00070493          	mv	s1,a4
    80001798:	00194783          	lbu	a5,1(s2)
    8000179c:	014989b3          	add	s3,s3,s4
    800017a0:	08078e63          	beqz	a5,8000183c <vsprintf+0x124>
    800017a4:	00148913          	addi	s2,s1,1
    800017a8:	fd979ee3          	bne	a5,s9,80001784 <vsprintf+0x6c>
    800017ac:	0014c783          	lbu	a5,1(s1)
    800017b0:	00078d9b          	sext.w	s11,a5
    800017b4:	1da78063          	beq	a5,s10,80001974 <vsprintf+0x25c>
    800017b8:	04fd6263          	bltu	s10,a5,800017fc <vsprintf+0xe4>
    800017bc:	03900713          	li	a4,57
    800017c0:	0cf76463          	bltu	a4,a5,80001888 <vsprintf+0x170>
    800017c4:	02f00713          	li	a4,47
    800017c8:	10f76a63          	bltu	a4,a5,800018dc <vsprintf+0x1c4>
    800017cc:	000d8593          	mv	a1,s11
    800017d0:	00001517          	auipc	a0,0x1
    800017d4:	61850513          	addi	a0,a0,1560 # 80002de8 <dy.1524+0x5c8>
    800017d8:	2d4000ef          	jal	ra,80001aac <printf>
    800017dc:	0b000613          	li	a2,176
    800017e0:	00001597          	auipc	a1,0x1
    800017e4:	61058593          	addi	a1,a1,1552 # 80002df0 <dy.1524+0x5d0>
    800017e8:	00001517          	auipc	a0,0x1
    800017ec:	ff850513          	addi	a0,a0,-8 # 800027e0 <tests+0x978>
    800017f0:	2bc000ef          	jal	ra,80001aac <printf>
    800017f4:	00100513          	li	a0,1
    800017f8:	835ff0ef          	jal	ra,8000102c <halt>
    800017fc:	0b679663          	bne	a5,s6,800018a8 <vsprintf+0x190>
    80001800:	000ab503          	ld	a0,0(s5)
    80001804:	01000613          	li	a2,16
    80001808:	f4a40593          	addi	a1,s0,-182
    8000180c:	f5841423          	sh	s8,-184(s0)
    80001810:	e55ff0ef          	jal	ra,80001664 <_ui2a>
    80001814:	008a8a93          	addi	s5,s5,8
    80001818:	00250a1b          	addiw	s4,a0,2
    8000181c:	00098513          	mv	a0,s3
    80001820:	000a0613          	mv	a2,s4
    80001824:	f4840593          	addi	a1,s0,-184
    80001828:	480000ef          	jal	ra,80001ca8 <memcpy>
    8000182c:	00194783          	lbu	a5,1(s2)
    80001830:	00248493          	addi	s1,s1,2
    80001834:	014989b3          	add	s3,s3,s4
    80001838:	f60796e3          	bnez	a5,800017a4 <vsprintf+0x8c>
    8000183c:	ef843783          	ld	a5,-264(s0)
    80001840:	40f9853b          	subw	a0,s3,a5
    80001844:	00098023          	sb	zero,0(s3)
    80001848:	ef040113          	addi	sp,s0,-272
    8000184c:	10813083          	ld	ra,264(sp)
    80001850:	10013403          	ld	s0,256(sp)
    80001854:	0f813483          	ld	s1,248(sp)
    80001858:	0f013903          	ld	s2,240(sp)
    8000185c:	0e813983          	ld	s3,232(sp)
    80001860:	0e013a03          	ld	s4,224(sp)
    80001864:	0d813a83          	ld	s5,216(sp)
    80001868:	0d013b03          	ld	s6,208(sp)
    8000186c:	0c813b83          	ld	s7,200(sp)
    80001870:	0c013c03          	ld	s8,192(sp)
    80001874:	0b813c83          	ld	s9,184(sp)
    80001878:	0b013d03          	ld	s10,176(sp)
    8000187c:	0a813d83          	ld	s11,168(sp)
    80001880:	11010113          	addi	sp,sp,272
    80001884:	00008067          	ret
    80001888:	06300713          	li	a4,99
    8000188c:	f4e790e3          	bne	a5,a4,800017cc <vsprintf+0xb4>
    80001890:	000aa783          	lw	a5,0(s5)
    80001894:	00248493          	addi	s1,s1,2
    80001898:	008a8a93          	addi	s5,s5,8
    8000189c:	00f98023          	sb	a5,0(s3)
    800018a0:	00100a13          	li	s4,1
    800018a4:	ef5ff06f          	j	80001798 <vsprintf+0x80>
    800018a8:	07300713          	li	a4,115
    800018ac:	f2e790e3          	bne	a5,a4,800017cc <vsprintf+0xb4>
    800018b0:	000abd83          	ld	s11,0(s5)
    800018b4:	00248493          	addi	s1,s1,2
    800018b8:	008a8a93          	addi	s5,s5,8
    800018bc:	000d8513          	mv	a0,s11
    800018c0:	290000ef          	jal	ra,80001b50 <strlen>
    800018c4:	00050a1b          	sext.w	s4,a0
    800018c8:	000a0613          	mv	a2,s4
    800018cc:	000d8593          	mv	a1,s11
    800018d0:	00098513          	mv	a0,s3
    800018d4:	3d4000ef          	jal	ra,80001ca8 <memcpy>
    800018d8:	ec1ff06f          	j	80001798 <vsprintf+0x80>
    800018dc:	0024c583          	lbu	a1,2(s1)
    800018e0:	00900713          	li	a4,9
    800018e4:	fd05879b          	addiw	a5,a1,-48
    800018e8:	0ff7f793          	andi	a5,a5,255
    800018ec:	0005859b          	sext.w	a1,a1
    800018f0:	0af76063          	bltu	a4,a5,80001990 <vsprintf+0x278>
    800018f4:	fd058b9b          	addiw	s7,a1,-48
    800018f8:	0034c583          	lbu	a1,3(s1)
    800018fc:	00348913          	addi	s2,s1,3
    80001900:	03a59c63          	bne	a1,s10,80001938 <vsprintf+0x220>
    80001904:	000aa503          	lw	a0,0(s5)
    80001908:	00a00613          	li	a2,10
    8000190c:	f4840593          	addi	a1,s0,-184
    80001910:	c91ff0ef          	jal	ra,800015a0 <_i2a>
    80001914:	008a8a93          	addi	s5,s5,8
    80001918:	00050a13          	mv	s4,a0
    8000191c:	0f754c63          	blt	a0,s7,80001a14 <vsprintf+0x2fc>
    80001920:	000a0613          	mv	a2,s4
    80001924:	f4840593          	addi	a1,s0,-184
    80001928:	00098513          	mv	a0,s3
    8000192c:	37c000ef          	jal	ra,80001ca8 <memcpy>
    80001930:	00190493          	addi	s1,s2,1
    80001934:	e65ff06f          	j	80001798 <vsprintf+0x80>
    80001938:	07800793          	li	a5,120
    8000193c:	14f59e63          	bne	a1,a5,80001a98 <vsprintf+0x380>
    80001940:	000ab503          	ld	a0,0(s5)
    80001944:	01000613          	li	a2,16
    80001948:	f0840593          	addi	a1,s0,-248
    8000194c:	f5841423          	sh	s8,-184(s0)
    80001950:	d15ff0ef          	jal	ra,80001664 <_ui2a>
    80001954:	008a8a93          	addi	s5,s5,8
    80001958:	00050a13          	mv	s4,a0
    8000195c:	05754263          	blt	a0,s7,800019a0 <vsprintf+0x288>
    80001960:	f0840593          	addi	a1,s0,-248
    80001964:	f4a40513          	addi	a0,s0,-182
    80001968:	210000ef          	jal	ra,80001b78 <strcpy>
    8000196c:	002a0a1b          	addiw	s4,s4,2
    80001970:	fb1ff06f          	j	80001920 <vsprintf+0x208>
    80001974:	000aa503          	lw	a0,0(s5)
    80001978:	00a00613          	li	a2,10
    8000197c:	f4840593          	addi	a1,s0,-184
    80001980:	c21ff0ef          	jal	ra,800015a0 <_i2a>
    80001984:	008a8a93          	addi	s5,s5,8
    80001988:	00050a13          	mv	s4,a0
    8000198c:	e91ff06f          	j	8000181c <vsprintf+0x104>
    80001990:	fd0d8b9b          	addiw	s7,s11,-48
    80001994:	00248913          	addi	s2,s1,2
    80001998:	02000d93          	li	s11,32
    8000199c:	f65ff06f          	j	80001900 <vsprintf+0x1e8>
    800019a0:	00fb8793          	addi	a5,s7,15
    800019a4:	ff07f793          	andi	a5,a5,-16
    800019a8:	00010493          	mv	s1,sp
    800019ac:	40f10133          	sub	sp,sp,a5
    800019b0:	00010593          	mv	a1,sp
    800019b4:	03705663          	blez	s7,800019e0 <vsprintf+0x2c8>
    800019b8:	40ab863b          	subw	a2,s7,a0
    800019bc:	00000793          	li	a5,0
    800019c0:	00000713          	li	a4,0
    800019c4:	41750a3b          	subw	s4,a0,s7
    800019c8:	02c75863          	bge	a4,a2,800019f8 <vsprintf+0x2e0>
    800019cc:	00f58733          	add	a4,a1,a5
    800019d0:	01b70023          	sb	s11,0(a4)
    800019d4:	00178793          	addi	a5,a5,1
    800019d8:	0007871b          	sext.w	a4,a5
    800019dc:	ff7746e3          	blt	a4,s7,800019c8 <vsprintf+0x2b0>
    800019e0:	f4a40513          	addi	a0,s0,-182
    800019e4:	000b8a13          	mv	s4,s7
    800019e8:	190000ef          	jal	ra,80001b78 <strcpy>
    800019ec:	002a0a1b          	addiw	s4,s4,2
    800019f0:	00048113          	mv	sp,s1
    800019f4:	f2dff06f          	j	80001920 <vsprintf+0x208>
    800019f8:	00fa073b          	addw	a4,s4,a5
    800019fc:	f9040693          	addi	a3,s0,-112
    80001a00:	00e68733          	add	a4,a3,a4
    80001a04:	f7874503          	lbu	a0,-136(a4)
    80001a08:	00f58733          	add	a4,a1,a5
    80001a0c:	00a70023          	sb	a0,0(a4)
    80001a10:	fc5ff06f          	j	800019d4 <vsprintf+0x2bc>
    80001a14:	00fb8793          	addi	a5,s7,15
    80001a18:	ff07f793          	andi	a5,a5,-16
    80001a1c:	00010493          	mv	s1,sp
    80001a20:	40f10133          	sub	sp,sp,a5
    80001a24:	000b8a13          	mv	s4,s7
    80001a28:	00010593          	mv	a1,sp
    80001a2c:	03705663          	blez	s7,80001a58 <vsprintf+0x340>
    80001a30:	40ab863b          	subw	a2,s7,a0
    80001a34:	00000793          	li	a5,0
    80001a38:	00000713          	li	a4,0
    80001a3c:	4175053b          	subw	a0,a0,s7
    80001a40:	02c75863          	bge	a4,a2,80001a70 <vsprintf+0x358>
    80001a44:	00f58733          	add	a4,a1,a5
    80001a48:	01b70023          	sb	s11,0(a4)
    80001a4c:	00178793          	addi	a5,a5,1
    80001a50:	0007871b          	sext.w	a4,a5
    80001a54:	ff7746e3          	blt	a4,s7,80001a40 <vsprintf+0x328>
    80001a58:	000b8613          	mv	a2,s7
    80001a5c:	00098513          	mv	a0,s3
    80001a60:	248000ef          	jal	ra,80001ca8 <memcpy>
    80001a64:	00048113          	mv	sp,s1
    80001a68:	00190493          	addi	s1,s2,1
    80001a6c:	d2dff06f          	j	80001798 <vsprintf+0x80>
    80001a70:	00f5073b          	addw	a4,a0,a5
    80001a74:	f9040693          	addi	a3,s0,-112
    80001a78:	00e68733          	add	a4,a3,a4
    80001a7c:	fb874803          	lbu	a6,-72(a4)
    80001a80:	00f58733          	add	a4,a1,a5
    80001a84:	01070023          	sb	a6,0(a4)
    80001a88:	fc5ff06f          	j	80001a4c <vsprintf+0x334>
    80001a8c:	ef843983          	ld	s3,-264(s0)
    80001a90:	00000513          	li	a0,0
    80001a94:	db1ff06f          	j	80001844 <vsprintf+0x12c>
    80001a98:	00001517          	auipc	a0,0x1
    80001a9c:	35050513          	addi	a0,a0,848 # 80002de8 <dy.1524+0x5c8>
    80001aa0:	00c000ef          	jal	ra,80001aac <printf>
    80001aa4:	0a800613          	li	a2,168
    80001aa8:	d39ff06f          	j	800017e0 <vsprintf+0xc8>

0000000080001aac <printf>:
    80001aac:	f9010113          	addi	sp,sp,-112
    80001ab0:	03810313          	addi	t1,sp,56
    80001ab4:	02b13c23          	sd	a1,56(sp)
    80001ab8:	04c13023          	sd	a2,64(sp)
    80001abc:	00050593          	mv	a1,a0
    80001ac0:	00030613          	mv	a2,t1
    80001ac4:	00094517          	auipc	a0,0x94
    80001ac8:	bbc50513          	addi	a0,a0,-1092 # 80095680 <print_buf>
    80001acc:	00913c23          	sd	s1,24(sp)
    80001ad0:	01213823          	sd	s2,16(sp)
    80001ad4:	02113423          	sd	ra,40(sp)
    80001ad8:	02813023          	sd	s0,32(sp)
    80001adc:	04d13423          	sd	a3,72(sp)
    80001ae0:	04e13823          	sd	a4,80(sp)
    80001ae4:	04f13c23          	sd	a5,88(sp)
    80001ae8:	07013023          	sd	a6,96(sp)
    80001aec:	07113423          	sd	a7,104(sp)
    80001af0:	00613423          	sd	t1,8(sp)
    80001af4:	c25ff0ef          	jal	ra,80001718 <vsprintf>
    80001af8:	0005049b          	sext.w	s1,a0
    80001afc:	00050913          	mv	s2,a0
    80001b00:	02048a63          	beqz	s1,80001b34 <printf+0x88>
    80001b04:	fff4849b          	addiw	s1,s1,-1
    80001b08:	02049493          	slli	s1,s1,0x20
    80001b0c:	0204d493          	srli	s1,s1,0x20
    80001b10:	00094797          	auipc	a5,0x94
    80001b14:	b7178793          	addi	a5,a5,-1167 # 80095681 <print_buf+0x1>
    80001b18:	00094417          	auipc	s0,0x94
    80001b1c:	b6840413          	addi	s0,s0,-1176 # 80095680 <print_buf>
    80001b20:	00f484b3          	add	s1,s1,a5
    80001b24:	00044503          	lbu	a0,0(s0)
    80001b28:	00140413          	addi	s0,s0,1
    80001b2c:	cf0ff0ef          	jal	ra,8000101c <putch>
    80001b30:	fe941ae3          	bne	s0,s1,80001b24 <printf+0x78>
    80001b34:	02813083          	ld	ra,40(sp)
    80001b38:	02013403          	ld	s0,32(sp)
    80001b3c:	01813483          	ld	s1,24(sp)
    80001b40:	00090513          	mv	a0,s2
    80001b44:	01013903          	ld	s2,16(sp)
    80001b48:	07010113          	addi	sp,sp,112
    80001b4c:	00008067          	ret

0000000080001b50 <strlen>:
    80001b50:	00054783          	lbu	a5,0(a0)
    80001b54:	00078e63          	beqz	a5,80001b70 <strlen+0x20>
    80001b58:	00050793          	mv	a5,a0
    80001b5c:	0017c703          	lbu	a4,1(a5)
    80001b60:	00178793          	addi	a5,a5,1
    80001b64:	fe071ce3          	bnez	a4,80001b5c <strlen+0xc>
    80001b68:	40a78533          	sub	a0,a5,a0
    80001b6c:	00008067          	ret
    80001b70:	00000513          	li	a0,0
    80001b74:	00008067          	ret

0000000080001b78 <strcpy>:
    80001b78:	04050263          	beqz	a0,80001bbc <strcpy+0x44>
    80001b7c:	04058063          	beqz	a1,80001bbc <strcpy+0x44>
    80001b80:	0005c703          	lbu	a4,0(a1)
    80001b84:	00000793          	li	a5,0
    80001b88:	02070463          	beqz	a4,80001bb0 <strcpy+0x38>
    80001b8c:	00f506b3          	add	a3,a0,a5
    80001b90:	00178793          	addi	a5,a5,1
    80001b94:	00e68023          	sb	a4,0(a3)
    80001b98:	00f58733          	add	a4,a1,a5
    80001b9c:	00074703          	lbu	a4,0(a4)
    80001ba0:	fe0716e3          	bnez	a4,80001b8c <strcpy+0x14>
    80001ba4:	00f507b3          	add	a5,a0,a5
    80001ba8:	00078023          	sb	zero,0(a5)
    80001bac:	00008067          	ret
    80001bb0:	00050793          	mv	a5,a0
    80001bb4:	00078023          	sb	zero,0(a5)
    80001bb8:	00008067          	ret
    80001bbc:	ff010113          	addi	sp,sp,-16
    80001bc0:	00f00613          	li	a2,15
    80001bc4:	00001597          	auipc	a1,0x1
    80001bc8:	28c58593          	addi	a1,a1,652 # 80002e50 <s.1489+0x18>
    80001bcc:	00001517          	auipc	a0,0x1
    80001bd0:	c1450513          	addi	a0,a0,-1004 # 800027e0 <tests+0x978>
    80001bd4:	00113423          	sd	ra,8(sp)
    80001bd8:	ed5ff0ef          	jal	ra,80001aac <printf>
    80001bdc:	00100513          	li	a0,1
    80001be0:	c4cff0ef          	jal	ra,8000102c <halt>

0000000080001be4 <strcmp>:
    80001be4:	00054703          	lbu	a4,0(a0)
    80001be8:	02070c63          	beqz	a4,80001c20 <strcmp+0x3c>
    80001bec:	00000793          	li	a5,0
    80001bf0:	0100006f          	j	80001c00 <strcmp+0x1c>
    80001bf4:	02e69e63          	bne	a3,a4,80001c30 <strcmp+0x4c>
    80001bf8:	00064703          	lbu	a4,0(a2)
    80001bfc:	02070063          	beqz	a4,80001c1c <strcmp+0x38>
    80001c00:	00f586b3          	add	a3,a1,a5
    80001c04:	0006c683          	lbu	a3,0(a3)
    80001c08:	00178793          	addi	a5,a5,1
    80001c0c:	00f50633          	add	a2,a0,a5
    80001c10:	fe0692e3          	bnez	a3,80001bf4 <strcmp+0x10>
    80001c14:	00100513          	li	a0,1
    80001c18:	00008067          	ret
    80001c1c:	00f585b3          	add	a1,a1,a5
    80001c20:	0005c503          	lbu	a0,0(a1)
    80001c24:	00a03533          	snez	a0,a0
    80001c28:	40a00533          	neg	a0,a0
    80001c2c:	00008067          	ret
    80001c30:	00100513          	li	a0,1
    80001c34:	fed77ce3          	bgeu	a4,a3,80001c2c <strcmp+0x48>
    80001c38:	fff00513          	li	a0,-1
    80001c3c:	00008067          	ret

0000000080001c40 <strncmp>:
    80001c40:	ff010113          	addi	sp,sp,-16
    80001c44:	00813023          	sd	s0,0(sp)
    80001c48:	00113423          	sd	ra,8(sp)
    80001c4c:	00001417          	auipc	s0,0x1
    80001c50:	0c440413          	addi	s0,s0,196 # 80002d10 <dy.1524+0x4f0>
    80001c54:	04100513          	li	a0,65
    80001c58:	00140413          	addi	s0,s0,1
    80001c5c:	bc0ff0ef          	jal	ra,8000101c <putch>
    80001c60:	00044503          	lbu	a0,0(s0)
    80001c64:	fe051ae3          	bnez	a0,80001c58 <strncmp+0x18>
    80001c68:	00001417          	auipc	s0,0x1
    80001c6c:	23040413          	addi	s0,s0,560 # 80002e98 <s.1489+0x60>
    80001c70:	04e00513          	li	a0,78
    80001c74:	00140413          	addi	s0,s0,1
    80001c78:	ba4ff0ef          	jal	ra,8000101c <putch>
    80001c7c:	00044503          	lbu	a0,0(s0)
    80001c80:	fe051ae3          	bnez	a0,80001c74 <strncmp+0x34>
    80001c84:	00001417          	auipc	s0,0x1
    80001c88:	27440413          	addi	s0,s0,628 # 80002ef8 <s.1489+0xc0>
    80001c8c:	02000513          	li	a0,32
    80001c90:	00140413          	addi	s0,s0,1
    80001c94:	b88ff0ef          	jal	ra,8000101c <putch>
    80001c98:	00044503          	lbu	a0,0(s0)
    80001c9c:	fe051ae3          	bnez	a0,80001c90 <strncmp+0x50>
    80001ca0:	00100513          	li	a0,1
    80001ca4:	b88ff0ef          	jal	ra,8000102c <halt>

0000000080001ca8 <memcpy>:
    80001ca8:	ff010113          	addi	sp,sp,-16
    80001cac:	00113423          	sd	ra,8(sp)
    80001cb0:	04050463          	beqz	a0,80001cf8 <memcpy+0x50>
    80001cb4:	04058263          	beqz	a1,80001cf8 <memcpy+0x50>
    80001cb8:	00c586b3          	add	a3,a1,a2
    80001cbc:	02d56663          	bltu	a0,a3,80001ce8 <memcpy+0x40>
    80001cc0:	00050793          	mv	a5,a0
    80001cc4:	00060c63          	beqz	a2,80001cdc <memcpy+0x34>
    80001cc8:	0005c703          	lbu	a4,0(a1)
    80001ccc:	00158593          	addi	a1,a1,1
    80001cd0:	00178793          	addi	a5,a5,1
    80001cd4:	fee78fa3          	sb	a4,-1(a5)
    80001cd8:	feb698e3          	bne	a3,a1,80001cc8 <memcpy+0x20>
    80001cdc:	00813083          	ld	ra,8(sp)
    80001ce0:	01010113          	addi	sp,sp,16
    80001ce4:	00008067          	ret
    80001ce8:	00c507b3          	add	a5,a0,a2
    80001cec:	fcb7eae3          	bltu	a5,a1,80001cc0 <memcpy+0x18>
    80001cf0:	04a00613          	li	a2,74
    80001cf4:	0080006f          	j	80001cfc <memcpy+0x54>
    80001cf8:	04900613          	li	a2,73
    80001cfc:	00001597          	auipc	a1,0x1
    80001d00:	15458593          	addi	a1,a1,340 # 80002e50 <s.1489+0x18>
    80001d04:	00001517          	auipc	a0,0x1
    80001d08:	adc50513          	addi	a0,a0,-1316 # 800027e0 <tests+0x978>
    80001d0c:	da1ff0ef          	jal	ra,80001aac <printf>
    80001d10:	00100513          	li	a0,1
    80001d14:	b18ff0ef          	jal	ra,8000102c <halt>
